Archive member included to satisfy reference by file (symbol)

D:\opench-ch32v307\firmware\TcpClient\NetLib\libwchnet.a(eth_driver.o)
                              ./User/main.o (WCH_GetMac)
D:\opench-ch32v307\firmware\TcpClient\NetLib\libwchnet.a(socket.o)
                              ./User/main.o (WCHNET_Init)
D:\opench-ch32v307\firmware\TcpClient\NetLib\libwchnet.a(etharp.o)
                              D:\opench-ch32v307\firmware\TcpClient\NetLib\libwchnet.a(socket.o) (etharp_request)
D:\opench-ch32v307\firmware\TcpClient\NetLib\libwchnet.a(ethernetif.o)
                              D:\opench-ch32v307\firmware\TcpClient\NetLib\libwchnet.a(socket.o) (low_level_init)
D:\opench-ch32v307\firmware\TcpClient\NetLib\libwchnet.a(inet.o)
                              D:\opench-ch32v307\firmware\TcpClient\NetLib\libwchnet.a(socket.o) (inet_ntoa)
D:\opench-ch32v307\firmware\TcpClient\NetLib\libwchnet.a(ip.o)
                              D:\opench-ch32v307\firmware\TcpClient\NetLib\libwchnet.a(etharp.o) (ip_input)
D:\opench-ch32v307\firmware\TcpClient\NetLib\libwchnet.a(ip_addr.o)
                              D:\opench-ch32v307\firmware\TcpClient\NetLib\libwchnet.a(socket.o) (ip_addr_isbroadcast)
D:\opench-ch32v307\firmware\TcpClient\NetLib\libwchnet.a(ip_frag.o)
                              D:\opench-ch32v307\firmware\TcpClient\NetLib\libwchnet.a(ethernetif.o) (ip_reass_tmr)
D:\opench-ch32v307\firmware\TcpClient\NetLib\libwchnet.a(init.o)
                              D:\opench-ch32v307\firmware\TcpClient\NetLib\libwchnet.a(ethernetif.o) (lwip_init)
D:\opench-ch32v307\firmware\TcpClient\NetLib\libwchnet.a(mem.o)
                              D:\opench-ch32v307\firmware\TcpClient\NetLib\libwchnet.a(init.o) (mem_init)
D:\opench-ch32v307\firmware\TcpClient\NetLib\libwchnet.a(memp.o)
                              D:\opench-ch32v307\firmware\TcpClient\NetLib\libwchnet.a(init.o) (memp_init)
D:\opench-ch32v307\firmware\TcpClient\NetLib\libwchnet.a(netif.o)
                              D:\opench-ch32v307\firmware\TcpClient\NetLib\libwchnet.a(socket.o) (netif_remove)
D:\opench-ch32v307\firmware\TcpClient\NetLib\libwchnet.a(pbuf.o)
                              D:\opench-ch32v307\firmware\TcpClient\NetLib\libwchnet.a(socket.o) (pbuf_header)
D:\opench-ch32v307\firmware\TcpClient\NetLib\libwchnet.a(raw.o)
                              D:\opench-ch32v307\firmware\TcpClient\NetLib\libwchnet.a(ip.o) (raw_input)
D:\opench-ch32v307\firmware\TcpClient\NetLib\libwchnet.a(tcp.o)
                              D:\opench-ch32v307\firmware\TcpClient\NetLib\libwchnet.a(socket.o) (tcp_bind)
D:\opench-ch32v307\firmware\TcpClient\NetLib\libwchnet.a(tcp_in.o)
                              D:\opench-ch32v307\firmware\TcpClient\NetLib\libwchnet.a(ip.o) (tcp_input)
D:\opench-ch32v307\firmware\TcpClient\NetLib\libwchnet.a(tcp_out.o)
                              D:\opench-ch32v307\firmware\TcpClient\NetLib\libwchnet.a(tcp.o) (tcp_enqueue)
D:\opench-ch32v307\firmware\TcpClient\NetLib\libwchnet.a(udp.o)
                              D:\opench-ch32v307\firmware\TcpClient\NetLib\libwchnet.a(ip.o) (udp_input)
D:\opench-ch32v307\firmware\TcpClient\NetLib\libwchnet.a(ipcheck.o)
                              D:\opench-ch32v307\firmware\TcpClient\NetLib\libwchnet.a(socket.o) (IPCheckParaInit)
D:\opench-ch32v307\firmware\TcpClient\NetLib\libwchnet.a(wchnet_dhcp.o)
                              D:\opench-ch32v307\firmware\TcpClient\NetLib\libwchnet.a(etharp.o) (dhcp_arp_reply)
D:\opench-ch32v307\firmware\TcpClient\NetLib\libwchnet.a(wchnet_dns.o)
                              D:\opench-ch32v307\firmware\TcpClient\NetLib\libwchnet.a(wchnet_dhcp.o) (dns_setserver)
D:\opench-ch32v307\firmware\TcpClient\NetLib\libwchnet.a(icmp.o)
                              D:\opench-ch32v307\firmware\TcpClient\NetLib\libwchnet.a(ip.o) (icmp_input)
D:\opench-ch32v307\firmware\TcpClient\NetLib\libwchnet.a(inet_chksum.o)
                              D:\opench-ch32v307\firmware\TcpClient\NetLib\libwchnet.a(tcp_in.o) (inet_chksum_pseudo)
d:/mounriver/mounriver_studio/toolchain/risc-v embedded gcc/bin/../lib/gcc/riscv-none-embed/8.2.0/../../../../riscv-none-embed/lib/rv32imac/ilp32\libprintf.a(wchprintf.o)
                              ./User/ch32v30x_it.o (printf)
d:/mounriver/mounriver_studio/toolchain/risc-v embedded gcc/bin/../lib/gcc/riscv-none-embed/8.2.0/rv32imac/ilp32\libgcc.a(save-restore.o)
                              D:\opench-ch32v307\firmware\TcpClient\NetLib\libwchnet.a(socket.o) (__riscv_save_12)
d:/mounriver/mounriver_studio/toolchain/risc-v embedded gcc/bin/../lib/gcc/riscv-none-embed/8.2.0/../../../../riscv-none-embed/lib/rv32imac/ilp32\libg_nano.a(lib_a-memcpy.o)
                              D:\opench-ch32v307\firmware\TcpClient\NetLib\libwchnet.a(eth_driver.o) (memcpy)
d:/mounriver/mounriver_studio/toolchain/risc-v embedded gcc/bin/../lib/gcc/riscv-none-embed/8.2.0/../../../../riscv-none-embed/lib/rv32imac/ilp32\libg_nano.a(lib_a-memset.o)
                              ./User/lcd.o (memset)
d:/mounriver/mounriver_studio/toolchain/risc-v embedded gcc/bin/../lib/gcc/riscv-none-embed/8.2.0/../../../../riscv-none-embed/lib/rv32imac/ilp32\libg_nano.a(lib_a-strcmp.o)
                              D:\opench-ch32v307\firmware\TcpClient\NetLib\libwchnet.a(wchnet_dns.o) (strcmp)
d:/mounriver/mounriver_studio/toolchain/risc-v embedded gcc/bin/../lib/gcc/riscv-none-embed/8.2.0/../../../../riscv-none-embed/lib/rv32imac/ilp32\libg_nano.a(lib_a-strcpy.o)
                              D:\opench-ch32v307\firmware\TcpClient\NetLib\libwchnet.a(ethernetif.o) (strcpy)
d:/mounriver/mounriver_studio/toolchain/risc-v embedded gcc/bin/../lib/gcc/riscv-none-embed/8.2.0/../../../../riscv-none-embed/lib/rv32imac/ilp32\libg_nano.a(lib_a-strlen.o)
                              ./User/main.o (strlen)
d:/mounriver/mounriver_studio/toolchain/risc-v embedded gcc/bin/../lib/gcc/riscv-none-embed/8.2.0/../../../../riscv-none-embed/lib/rv32imac/ilp32\libg_nano.a(lib_a-strncmp.o)
                              ./User/main.o (strncmp)
d:/mounriver/mounriver_studio/toolchain/risc-v embedded gcc/bin/../lib/gcc/riscv-none-embed/8.2.0/../../../../riscv-none-embed/lib/rv32imac/ilp32\libg_nano.a(lib_a-vsnprintf.o)
                              ./User/lcd.o (vsnprintf)
d:/mounriver/mounriver_studio/toolchain/risc-v embedded gcc/bin/../lib/gcc/riscv-none-embed/8.2.0/../../../../riscv-none-embed/lib/rv32imac/ilp32\libg_nano.a(lib_a-impure.o)
                              d:/mounriver/mounriver_studio/toolchain/risc-v embedded gcc/bin/../lib/gcc/riscv-none-embed/8.2.0/../../../../riscv-none-embed/lib/rv32imac/ilp32\libg_nano.a(lib_a-vsnprintf.o) (_impure_ptr)
d:/mounriver/mounriver_studio/toolchain/risc-v embedded gcc/bin/../lib/gcc/riscv-none-embed/8.2.0/../../../../riscv-none-embed/lib/rv32imac/ilp32\libg_nano.a(lib_a-nano-svfprintf.o)
                              d:/mounriver/mounriver_studio/toolchain/risc-v embedded gcc/bin/../lib/gcc/riscv-none-embed/8.2.0/../../../../riscv-none-embed/lib/rv32imac/ilp32\libg_nano.a(lib_a-vsnprintf.o) (_svfprintf_r)
d:/mounriver/mounriver_studio/toolchain/risc-v embedded gcc/bin/../lib/gcc/riscv-none-embed/8.2.0/../../../../riscv-none-embed/lib/rv32imac/ilp32\libg_nano.a(lib_a-nano-vfprintf_i.o)
                              d:/mounriver/mounriver_studio/toolchain/risc-v embedded gcc/bin/../lib/gcc/riscv-none-embed/8.2.0/../../../../riscv-none-embed/lib/rv32imac/ilp32\libg_nano.a(lib_a-nano-svfprintf.o) (_printf_i)
d:/mounriver/mounriver_studio/toolchain/risc-v embedded gcc/bin/../lib/gcc/riscv-none-embed/8.2.0/../../../../riscv-none-embed/lib/rv32imac/ilp32\libg_nano.a(lib_a-memchr.o)
                              d:/mounriver/mounriver_studio/toolchain/risc-v embedded gcc/bin/../lib/gcc/riscv-none-embed/8.2.0/../../../../riscv-none-embed/lib/rv32imac/ilp32\libg_nano.a(lib_a-nano-svfprintf.o) (memchr)
d:/mounriver/mounriver_studio/toolchain/risc-v embedded gcc/bin/../lib/gcc/riscv-none-embed/8.2.0/../../../../riscv-none-embed/lib/rv32imac/ilp32\libg_nano.a(lib_a-memmove.o)
                              d:/mounriver/mounriver_studio/toolchain/risc-v embedded gcc/bin/../lib/gcc/riscv-none-embed/8.2.0/../../../../riscv-none-embed/lib/rv32imac/ilp32\libg_nano.a(lib_a-nano-svfprintf.o) (memmove)
d:/mounriver/mounriver_studio/toolchain/risc-v embedded gcc/bin/../lib/gcc/riscv-none-embed/8.2.0/../../../../riscv-none-embed/lib/rv32imac/ilp32\libg_nano.a(lib_a-nano-freer.o)
                              d:/mounriver/mounriver_studio/toolchain/risc-v embedded gcc/bin/../lib/gcc/riscv-none-embed/8.2.0/../../../../riscv-none-embed/lib/rv32imac/ilp32\libg_nano.a(lib_a-nano-svfprintf.o) (_free_r)
d:/mounriver/mounriver_studio/toolchain/risc-v embedded gcc/bin/../lib/gcc/riscv-none-embed/8.2.0/../../../../riscv-none-embed/lib/rv32imac/ilp32\libg_nano.a(lib_a-nano-mallocr.o)
                              d:/mounriver/mounriver_studio/toolchain/risc-v embedded gcc/bin/../lib/gcc/riscv-none-embed/8.2.0/../../../../riscv-none-embed/lib/rv32imac/ilp32\libg_nano.a(lib_a-nano-svfprintf.o) (_malloc_r)
d:/mounriver/mounriver_studio/toolchain/risc-v embedded gcc/bin/../lib/gcc/riscv-none-embed/8.2.0/../../../../riscv-none-embed/lib/rv32imac/ilp32\libg_nano.a(lib_a-nano-reallocr.o)
                              d:/mounriver/mounriver_studio/toolchain/risc-v embedded gcc/bin/../lib/gcc/riscv-none-embed/8.2.0/../../../../riscv-none-embed/lib/rv32imac/ilp32\libg_nano.a(lib_a-nano-svfprintf.o) (_realloc_r)
d:/mounriver/mounriver_studio/toolchain/risc-v embedded gcc/bin/../lib/gcc/riscv-none-embed/8.2.0/../../../../riscv-none-embed/lib/rv32imac/ilp32\libg_nano.a(lib_a-sbrkr.o)
                              d:/mounriver/mounriver_studio/toolchain/risc-v embedded gcc/bin/../lib/gcc/riscv-none-embed/8.2.0/../../../../riscv-none-embed/lib/rv32imac/ilp32\libg_nano.a(lib_a-nano-mallocr.o) (_sbrk_r)
d:/mounriver/mounriver_studio/toolchain/risc-v embedded gcc/bin/../lib/gcc/riscv-none-embed/8.2.0/../../../../riscv-none-embed/lib/rv32imac/ilp32\libg_nano.a(lib_a-mlock.o)
                              d:/mounriver/mounriver_studio/toolchain/risc-v embedded gcc/bin/../lib/gcc/riscv-none-embed/8.2.0/../../../../riscv-none-embed/lib/rv32imac/ilp32\libg_nano.a(lib_a-nano-freer.o) (__malloc_lock)
d:/mounriver/mounriver_studio/toolchain/risc-v embedded gcc/bin/../lib/gcc/riscv-none-embed/8.2.0/../../../../riscv-none-embed/lib/rv32imac/ilp32\libg_nano.a(lib_a-nano-msizer.o)
                              d:/mounriver/mounriver_studio/toolchain/risc-v embedded gcc/bin/../lib/gcc/riscv-none-embed/8.2.0/../../../../riscv-none-embed/lib/rv32imac/ilp32\libg_nano.a(lib_a-nano-reallocr.o) (_malloc_usable_size_r)
d:/mounriver/mounriver_studio/toolchain/risc-v embedded gcc/bin/../lib/gcc/riscv-none-embed/8.2.0/../../../../riscv-none-embed/lib/rv32imac/ilp32\libg_nano.a(lib_a-reent.o)
                              d:/mounriver/mounriver_studio/toolchain/risc-v embedded gcc/bin/../lib/gcc/riscv-none-embed/8.2.0/../../../../riscv-none-embed/lib/rv32imac/ilp32\libg_nano.a(lib_a-sbrkr.o) (errno)
d:/mounriver/mounriver_studio/toolchain/risc-v embedded gcc/bin/../lib/gcc/riscv-none-embed/8.2.0/../../../../riscv-none-embed/lib/rv32imac/ilp32\libnosys.a(sbrk.o)
                              d:/mounriver/mounriver_studio/toolchain/risc-v embedded gcc/bin/../lib/gcc/riscv-none-embed/8.2.0/../../../../riscv-none-embed/lib/rv32imac/ilp32\libg_nano.a(lib_a-sbrkr.o) (_sbrk)

Allocating common symbols
Common symbol       size              file

DMAPTPRxDescToGet   0x4               ./Peripheral/src/ch32v30x_eth.o
errno               0x4               d:/mounriver/mounriver_studio/toolchain/risc-v embedded gcc/bin/../lib/gcc/riscv-none-embed/8.2.0/../../../../riscv-none-embed/lib/rv32imac/ilp32\libg_nano.a(lib_a-reent.o)
MACAddr             0x6               ./User/main.o
DMARxDescToGet      0x4               ./Peripheral/src/ch32v30x_eth.o
MACRxBuf            0x3b60            ./User/main.o
SocketId            0x1               ./User/main.o
DMATxDescToSet      0x4               ./Peripheral/src/ch32v30x_eth.o
MyBuf               0x640             ./User/main.o
Mem_Heap_Memory     0x1214            ./User/main.o
Memp_Memory         0x2b53            ./User/main.o
DMATxDscrTab        0x20              ./User/main.o
DMARxDscrTab        0xa0              ./User/main.o
MACTxBuf            0xbe0             ./User/main.o
Mem_ArpTable        0x140             ./User/main.o
SocketInf           0x1e0             ./User/main.o
SocketRecvBuf       0x3200            ./User/main.o
len                 0x4               ./User/main.o
DMAPTPTxDescToSet   0x4               ./Peripheral/src/ch32v30x_eth.o

Discarded input sections

 .text          0x0000000000000000        0x0 ./User/IIC.o
 .data          0x0000000000000000        0x0 ./User/IIC.o
 .bss           0x0000000000000000        0x0 ./User/IIC.o
 .text          0x0000000000000000        0x0 ./User/ch32v30x_it.o
 .data          0x0000000000000000        0x0 ./User/ch32v30x_it.o
 .bss           0x0000000000000000        0x0 ./User/ch32v30x_it.o
 .text          0x0000000000000000        0x0 ./User/es8388.o
 .data          0x0000000000000000        0x0 ./User/es8388.o
 .bss           0x0000000000000000        0x0 ./User/es8388.o
 .text.ES8388_Read_Reg
                0x0000000000000000      0x14e ./User/es8388.o
 .text.ES8388_I2S_Cfg
                0x0000000000000000       0x14 ./User/es8388.o
 .text.ES8388_Set_Volume
                0x0000000000000000       0x3e ./User/es8388.o
 .text.ES8388_ADDA_Cfg
                0x0000000000000000       0x1c ./User/es8388.o
 .text.ES8388_Output_Cfg
                0x0000000000000000       0x18 ./User/es8388.o
 .text.ES8388_Input_Cfg
                0x0000000000000000       0x16 ./User/es8388.o
 .text          0x0000000000000000        0x0 ./User/lcd.o
 .data          0x0000000000000000        0x0 ./User/lcd.o
 .bss           0x0000000000000000        0x0 ./User/lcd.o
 .text.lcd_write_cmd
                0x0000000000000000        0xa ./User/lcd.o
 .text.lcd_write_data
                0x0000000000000000        0xa ./User/lcd.o
 .text.lcd_read_reg
                0x0000000000000000       0x22 ./User/lcd.o
 .text.lcd_display_on
                0x0000000000000000       0x12 ./User/lcd.o
 .text.lcd_display_off
                0x0000000000000000       0x12 ./User/lcd.o
 .text.lcd_enter_sleep
                0x0000000000000000       0x30 ./User/lcd.o
 .text.lcd_exit_sleep
                0x0000000000000000       0x3a ./User/lcd.o
 .text.lcd_draw_point
                0x0000000000000000       0x24 ./User/lcd.o
 .text.lcd_draw_point_color
                0x0000000000000000       0x24 ./User/lcd.o
 .text.lcd_draw_line
                0x0000000000000000      0x146 ./User/lcd.o
 .text.lcd_draw_rectangle
                0x0000000000000000       0x5a ./User/lcd.o
 .text.lcd_draw_circle
                0x0000000000000000      0x146 ./User/lcd.o
 .text.lcd_show_num
                0x0000000000000000       0x16 ./User/lcd.o
 .rodata.lcd_show_num.str1.4
                0x0000000000000000        0x3 ./User/lcd.o
 .text          0x0000000000000000        0x0 ./User/main.o
 .data          0x0000000000000000        0x0 ./User/main.o
 .bss           0x0000000000000000        0x0 ./User/main.o
 .text          0x0000000000000000        0x0 ./User/system_ch32v30x.o
 .data          0x0000000000000000        0x0 ./User/system_ch32v30x.o
 .bss           0x0000000000000000        0x0 ./User/system_ch32v30x.o
 .text.SystemCoreClockUpdate
                0x0000000000000000       0xb4 ./User/system_ch32v30x.o
 .data.AHBPrescTable
                0x0000000000000000       0x10 ./User/system_ch32v30x.o
 .text          0x0000000000000000        0x0 ./Startup/startup_ch32v30x.o
 .data          0x0000000000000000        0x0 ./Startup/startup_ch32v30x.o
 .bss           0x0000000000000000        0x0 ./Startup/startup_ch32v30x.o
 .text          0x0000000000000000        0x0 ./Peripheral/src/ch32v30x_adc.o
 .data          0x0000000000000000        0x0 ./Peripheral/src/ch32v30x_adc.o
 .bss           0x0000000000000000        0x0 ./Peripheral/src/ch32v30x_adc.o
 .text.ADC_DeInit
                0x0000000000000000       0x58 ./Peripheral/src/ch32v30x_adc.o
 .text.ADC_Init
                0x0000000000000000       0x58 ./Peripheral/src/ch32v30x_adc.o
 .text.ADC_StructInit
                0x0000000000000000       0x1c ./Peripheral/src/ch32v30x_adc.o
 .text.ADC_Cmd  0x0000000000000000       0x10 ./Peripheral/src/ch32v30x_adc.o
 .text.ADC_DMACmd
                0x0000000000000000       0x12 ./Peripheral/src/ch32v30x_adc.o
 .text.ADC_ITConfig
                0x0000000000000000       0x16 ./Peripheral/src/ch32v30x_adc.o
 .text.ADC_ResetCalibration
                0x0000000000000000        0xa ./Peripheral/src/ch32v30x_adc.o
 .text.ADC_GetResetCalibrationStatus
                0x0000000000000000        0x8 ./Peripheral/src/ch32v30x_adc.o
 .text.ADC_StartCalibration
                0x0000000000000000        0xa ./Peripheral/src/ch32v30x_adc.o
 .text.ADC_GetCalibrationStatus
                0x0000000000000000        0x8 ./Peripheral/src/ch32v30x_adc.o
 .text.ADC_SoftwareStartConvCmd
                0x0000000000000000       0x18 ./Peripheral/src/ch32v30x_adc.o
 .text.ADC_GetSoftwareStartConvStatus
                0x0000000000000000        0x8 ./Peripheral/src/ch32v30x_adc.o
 .text.ADC_DiscModeChannelCountConfig
                0x0000000000000000       0x12 ./Peripheral/src/ch32v30x_adc.o
 .text.ADC_DiscModeCmd
                0x0000000000000000       0x1a ./Peripheral/src/ch32v30x_adc.o
 .text.ADC_RegularChannelConfig
                0x0000000000000000       0xb8 ./Peripheral/src/ch32v30x_adc.o
 .text.ADC_ExternalTrigConvCmd
                0x0000000000000000       0x18 ./Peripheral/src/ch32v30x_adc.o
 .text.ADC_GetConversionValue
                0x0000000000000000        0x8 ./Peripheral/src/ch32v30x_adc.o
 .text.ADC_GetDualModeConversionValue
                0x0000000000000000        0xa ./Peripheral/src/ch32v30x_adc.o
 .text.ADC_AutoInjectedConvCmd
                0x0000000000000000       0x12 ./Peripheral/src/ch32v30x_adc.o
 .text.ADC_InjectedDiscModeCmd
                0x0000000000000000       0x14 ./Peripheral/src/ch32v30x_adc.o
 .text.ADC_ExternalTrigInjectedConvConfig
                0x0000000000000000        0xe ./Peripheral/src/ch32v30x_adc.o
 .text.ADC_ExternalTrigInjectedConvCmd
                0x0000000000000000       0x14 ./Peripheral/src/ch32v30x_adc.o
 .text.ADC_SoftwareStartInjectedConvCmd
                0x0000000000000000       0x18 ./Peripheral/src/ch32v30x_adc.o
 .text.ADC_GetSoftwareStartInjectedConvCmdStatus
                0x0000000000000000        0x8 ./Peripheral/src/ch32v30x_adc.o
 .text.ADC_InjectedChannelConfig
                0x0000000000000000       0x7a ./Peripheral/src/ch32v30x_adc.o
 .text.ADC_InjectedSequencerLengthConfig
                0x0000000000000000       0x14 ./Peripheral/src/ch32v30x_adc.o
 .text.ADC_SetInjectedOffset
                0x0000000000000000       0x14 ./Peripheral/src/ch32v30x_adc.o
 .text.ADC_GetInjectedConversionValue
                0x0000000000000000       0x1c ./Peripheral/src/ch32v30x_adc.o
 .text.ADC_AnalogWatchdogCmd
                0x0000000000000000       0x12 ./Peripheral/src/ch32v30x_adc.o
 .text.ADC_AnalogWatchdogThresholdsConfig
                0x0000000000000000        0x6 ./Peripheral/src/ch32v30x_adc.o
 .text.ADC_AnalogWatchdogSingleChannelConfig
                0x0000000000000000        0xa ./Peripheral/src/ch32v30x_adc.o
 .text.ADC_TempSensorVrefintCmd
                0x0000000000000000       0x20 ./Peripheral/src/ch32v30x_adc.o
 .text.ADC_GetFlagStatus
                0x0000000000000000        0xa ./Peripheral/src/ch32v30x_adc.o
 .text.ADC_ClearFlag
                0x0000000000000000        0x8 ./Peripheral/src/ch32v30x_adc.o
 .text.ADC_GetITStatus
                0x0000000000000000       0x1c ./Peripheral/src/ch32v30x_adc.o
 .text.ADC_ClearITPendingBit
                0x0000000000000000        0xa ./Peripheral/src/ch32v30x_adc.o
 .text.TempSensor_Volt_To_Temper
                0x0000000000000000       0x2a ./Peripheral/src/ch32v30x_adc.o
 .text.ADC_BufferCmd
                0x0000000000000000       0x18 ./Peripheral/src/ch32v30x_adc.o
 .text.Get_CalibrationValue
                0x0000000000000000      0x194 ./Peripheral/src/ch32v30x_adc.o
 .debug_info    0x0000000000000000     0x16eb ./Peripheral/src/ch32v30x_adc.o
 .debug_abbrev  0x0000000000000000      0x3d0 ./Peripheral/src/ch32v30x_adc.o
 .debug_loc     0x0000000000000000      0xa95 ./Peripheral/src/ch32v30x_adc.o
 .debug_aranges
                0x0000000000000000      0x150 ./Peripheral/src/ch32v30x_adc.o
 .debug_ranges  0x0000000000000000      0x178 ./Peripheral/src/ch32v30x_adc.o
 .debug_line    0x0000000000000000     0x1891 ./Peripheral/src/ch32v30x_adc.o
 .debug_str     0x0000000000000000      0xc17 ./Peripheral/src/ch32v30x_adc.o
 .comment       0x0000000000000000       0x34 ./Peripheral/src/ch32v30x_adc.o
 .debug_frame   0x0000000000000000      0x2c4 ./Peripheral/src/ch32v30x_adc.o
 .text          0x0000000000000000        0x0 ./Peripheral/src/ch32v30x_bkp.o
 .data          0x0000000000000000        0x0 ./Peripheral/src/ch32v30x_bkp.o
 .bss           0x0000000000000000        0x0 ./Peripheral/src/ch32v30x_bkp.o
 .text.BKP_DeInit
                0x0000000000000000       0x1c ./Peripheral/src/ch32v30x_bkp.o
 .text.BKP_TamperPinLevelConfig
                0x0000000000000000       0x24 ./Peripheral/src/ch32v30x_bkp.o
 .text.BKP_TamperPinCmd
                0x0000000000000000       0x24 ./Peripheral/src/ch32v30x_bkp.o
 .text.BKP_ITConfig
                0x0000000000000000       0x24 ./Peripheral/src/ch32v30x_bkp.o
 .text.BKP_RTCOutputConfig
                0x0000000000000000       0x18 ./Peripheral/src/ch32v30x_bkp.o
 .text.BKP_SetRTCCalibrationValue
                0x0000000000000000       0x18 ./Peripheral/src/ch32v30x_bkp.o
 .text.BKP_WriteBackupRegister
                0x0000000000000000       0x1c ./Peripheral/src/ch32v30x_bkp.o
 .text.BKP_ReadBackupRegister
                0x0000000000000000       0x1e ./Peripheral/src/ch32v30x_bkp.o
 .text.BKP_GetFlagStatus
                0x0000000000000000        0xe ./Peripheral/src/ch32v30x_bkp.o
 .text.BKP_ClearFlag
                0x0000000000000000       0x12 ./Peripheral/src/ch32v30x_bkp.o
 .text.BKP_GetITStatus
                0x0000000000000000        0xe ./Peripheral/src/ch32v30x_bkp.o
 .text.BKP_ClearITPendingBit
                0x0000000000000000       0x12 ./Peripheral/src/ch32v30x_bkp.o
 .debug_info    0x0000000000000000     0x108e ./Peripheral/src/ch32v30x_bkp.o
 .debug_abbrev  0x0000000000000000      0x2cf ./Peripheral/src/ch32v30x_bkp.o
 .debug_loc     0x0000000000000000       0xd8 ./Peripheral/src/ch32v30x_bkp.o
 .debug_aranges
                0x0000000000000000       0x78 ./Peripheral/src/ch32v30x_bkp.o
 .debug_ranges  0x0000000000000000       0x68 ./Peripheral/src/ch32v30x_bkp.o
 .debug_line    0x0000000000000000      0x688 ./Peripheral/src/ch32v30x_bkp.o
 .debug_str     0x0000000000000000      0xaa5 ./Peripheral/src/ch32v30x_bkp.o
 .comment       0x0000000000000000       0x34 ./Peripheral/src/ch32v30x_bkp.o
 .debug_frame   0x0000000000000000       0xec ./Peripheral/src/ch32v30x_bkp.o
 .text          0x0000000000000000        0x0 ./Peripheral/src/ch32v30x_can.o
 .data          0x0000000000000000        0x0 ./Peripheral/src/ch32v30x_can.o
 .bss           0x0000000000000000        0x0 ./Peripheral/src/ch32v30x_can.o
 .text.CAN_DeInit
                0x0000000000000000       0x44 ./Peripheral/src/ch32v30x_can.o
 .text.CAN_Init
                0x0000000000000000       0xf2 ./Peripheral/src/ch32v30x_can.o
 .text.CAN_FilterInit
                0x0000000000000000      0x102 ./Peripheral/src/ch32v30x_can.o
 .text.CAN_StructInit
                0x0000000000000000       0x26 ./Peripheral/src/ch32v30x_can.o
 .text.CAN_SlaveStartBank
                0x0000000000000000       0x38 ./Peripheral/src/ch32v30x_can.o
 .text.CAN_DBGFreeze
                0x0000000000000000       0x14 ./Peripheral/src/ch32v30x_can.o
 .text.CAN_TTComModeCmd
                0x0000000000000000       0x58 ./Peripheral/src/ch32v30x_can.o
 .text.CAN_Transmit
                0x0000000000000000       0xd4 ./Peripheral/src/ch32v30x_can.o
 .text.CAN_TransmitStatus
                0x0000000000000000       0x62 ./Peripheral/src/ch32v30x_can.o
 .text.CAN_CancelTransmit
                0x0000000000000000       0x2a ./Peripheral/src/ch32v30x_can.o
 .text.CAN_Receive
                0x0000000000000000       0xa4 ./Peripheral/src/ch32v30x_can.o
 .text.CAN_FIFORelease
                0x0000000000000000       0x16 ./Peripheral/src/ch32v30x_can.o
 .text.CAN_MessagePending
                0x0000000000000000       0x16 ./Peripheral/src/ch32v30x_can.o
 .text.CAN_OperatingModeRequest
                0x0000000000000000       0x72 ./Peripheral/src/ch32v30x_can.o
 .text.CAN_Sleep
                0x0000000000000000       0x16 ./Peripheral/src/ch32v30x_can.o
 .text.CAN_WakeUp
                0x0000000000000000       0x1e ./Peripheral/src/ch32v30x_can.o
 .text.CAN_GetLastErrorCode
                0x0000000000000000        0x8 ./Peripheral/src/ch32v30x_can.o
 .text.CAN_GetReceiveErrorCounter
                0x0000000000000000        0x6 ./Peripheral/src/ch32v30x_can.o
 .text.CAN_GetLSBTransmitErrorCounter
                0x0000000000000000        0xa ./Peripheral/src/ch32v30x_can.o
 .text.CAN_ITConfig
                0x0000000000000000       0x12 ./Peripheral/src/ch32v30x_can.o
 .text.CAN_GetFlagStatus
                0x0000000000000000       0x56 ./Peripheral/src/ch32v30x_can.o
 .text.CAN_ClearFlag
                0x0000000000000000       0x40 ./Peripheral/src/ch32v30x_can.o
 .text.CAN_GetITStatus
                0x0000000000000000       0xd0 ./Peripheral/src/ch32v30x_can.o
 .text.CAN_ClearITPendingBit
                0x0000000000000000       0x94 ./Peripheral/src/ch32v30x_can.o
 .debug_info    0x0000000000000000     0x1805 ./Peripheral/src/ch32v30x_can.o
 .debug_abbrev  0x0000000000000000      0x3ee ./Peripheral/src/ch32v30x_can.o
 .debug_loc     0x0000000000000000      0x999 ./Peripheral/src/ch32v30x_can.o
 .debug_aranges
                0x0000000000000000       0xd8 ./Peripheral/src/ch32v30x_can.o
 .debug_ranges  0x0000000000000000       0xf8 ./Peripheral/src/ch32v30x_can.o
 .debug_line    0x0000000000000000     0x1a2a ./Peripheral/src/ch32v30x_can.o
 .debug_str     0x0000000000000000      0xbbb ./Peripheral/src/ch32v30x_can.o
 .comment       0x0000000000000000       0x34 ./Peripheral/src/ch32v30x_can.o
 .debug_frame   0x0000000000000000      0x1a0 ./Peripheral/src/ch32v30x_can.o
 .text          0x0000000000000000        0x0 ./Peripheral/src/ch32v30x_crc.o
 .data          0x0000000000000000        0x0 ./Peripheral/src/ch32v30x_crc.o
 .bss           0x0000000000000000        0x0 ./Peripheral/src/ch32v30x_crc.o
 .text.CRC_ResetDR
                0x0000000000000000        0xa ./Peripheral/src/ch32v30x_crc.o
 .text.CRC_CalcCRC
                0x0000000000000000        0xa ./Peripheral/src/ch32v30x_crc.o
 .text.CRC_CalcBlockCRC
                0x0000000000000000       0x20 ./Peripheral/src/ch32v30x_crc.o
 .text.CRC_GetCRC
                0x0000000000000000        0xa ./Peripheral/src/ch32v30x_crc.o
 .text.CRC_SetIDRegister
                0x0000000000000000        0xa ./Peripheral/src/ch32v30x_crc.o
 .text.CRC_GetIDRegister
                0x0000000000000000        0xa ./Peripheral/src/ch32v30x_crc.o
 .debug_info    0x0000000000000000      0xab3 ./Peripheral/src/ch32v30x_crc.o
 .debug_abbrev  0x0000000000000000      0x25f ./Peripheral/src/ch32v30x_crc.o
 .debug_loc     0x0000000000000000       0x75 ./Peripheral/src/ch32v30x_crc.o
 .debug_aranges
                0x0000000000000000       0x48 ./Peripheral/src/ch32v30x_crc.o
 .debug_ranges  0x0000000000000000       0x38 ./Peripheral/src/ch32v30x_crc.o
 .debug_line    0x0000000000000000      0x3b4 ./Peripheral/src/ch32v30x_crc.o
 .debug_str     0x0000000000000000      0x67b ./Peripheral/src/ch32v30x_crc.o
 .comment       0x0000000000000000       0x34 ./Peripheral/src/ch32v30x_crc.o
 .debug_frame   0x0000000000000000       0x70 ./Peripheral/src/ch32v30x_crc.o
 .text          0x0000000000000000        0x0 ./Peripheral/src/ch32v30x_dac.o
 .data          0x0000000000000000        0x0 ./Peripheral/src/ch32v30x_dac.o
 .bss           0x0000000000000000        0x0 ./Peripheral/src/ch32v30x_dac.o
 .text.DAC_DeInit
                0x0000000000000000       0x24 ./Peripheral/src/ch32v30x_dac.o
 .text.DAC_Init
                0x0000000000000000       0x30 ./Peripheral/src/ch32v30x_dac.o
 .text.DAC_StructInit
                0x0000000000000000       0x12 ./Peripheral/src/ch32v30x_dac.o
 .text.DAC_Cmd  0x0000000000000000       0x2c ./Peripheral/src/ch32v30x_dac.o
 .text.DAC_DMACmd
                0x0000000000000000       0x2c ./Peripheral/src/ch32v30x_dac.o
 .text.DAC_SoftwareTriggerCmd
                0x0000000000000000       0x22 ./Peripheral/src/ch32v30x_dac.o
 .text.DAC_DualSoftwareTriggerCmd
                0x0000000000000000       0x18 ./Peripheral/src/ch32v30x_dac.o
 .text.DAC_WaveGenerationCmd
                0x0000000000000000       0x1e ./Peripheral/src/ch32v30x_dac.o
 .text.DAC_SetChannel1Data
                0x0000000000000000       0x1e ./Peripheral/src/ch32v30x_dac.o
 .text.DAC_SetChannel2Data
                0x0000000000000000       0x1e ./Peripheral/src/ch32v30x_dac.o
 .text.DAC_SetDualChannelData
                0x0000000000000000       0x1c ./Peripheral/src/ch32v30x_dac.o
 .text.DAC_GetDataOutputValue
                0x0000000000000000       0x26 ./Peripheral/src/ch32v30x_dac.o
 .debug_info    0x0000000000000000      0xdb7 ./Peripheral/src/ch32v30x_dac.o
 .debug_abbrev  0x0000000000000000      0x2c3 ./Peripheral/src/ch32v30x_dac.o
 .debug_loc     0x0000000000000000      0x23b ./Peripheral/src/ch32v30x_dac.o
 .debug_aranges
                0x0000000000000000       0x78 ./Peripheral/src/ch32v30x_dac.o
 .debug_ranges  0x0000000000000000       0x68 ./Peripheral/src/ch32v30x_dac.o
 .debug_line    0x0000000000000000      0x819 ./Peripheral/src/ch32v30x_dac.o
 .debug_str     0x0000000000000000      0x7ff ./Peripheral/src/ch32v30x_dac.o
 .comment       0x0000000000000000       0x34 ./Peripheral/src/ch32v30x_dac.o
 .debug_frame   0x0000000000000000       0xf4 ./Peripheral/src/ch32v30x_dac.o
 .text          0x0000000000000000        0x0 ./Peripheral/src/ch32v30x_dbgmcu.o
 .data          0x0000000000000000        0x0 ./Peripheral/src/ch32v30x_dbgmcu.o
 .bss           0x0000000000000000        0x0 ./Peripheral/src/ch32v30x_dbgmcu.o
 .text.DBGMCU_Config
                0x0000000000000000       0x4c ./Peripheral/src/ch32v30x_dbgmcu.o
 .debug_info    0x0000000000000000      0x9cf ./Peripheral/src/ch32v30x_dbgmcu.o
 .debug_abbrev  0x0000000000000000      0x214 ./Peripheral/src/ch32v30x_dbgmcu.o
 .debug_loc     0x0000000000000000       0x88 ./Peripheral/src/ch32v30x_dbgmcu.o
 .debug_aranges
                0x0000000000000000       0x20 ./Peripheral/src/ch32v30x_dbgmcu.o
 .debug_ranges  0x0000000000000000       0x10 ./Peripheral/src/ch32v30x_dbgmcu.o
 .debug_line    0x0000000000000000      0x345 ./Peripheral/src/ch32v30x_dbgmcu.o
 .debug_str     0x0000000000000000      0x605 ./Peripheral/src/ch32v30x_dbgmcu.o
 .comment       0x0000000000000000       0x34 ./Peripheral/src/ch32v30x_dbgmcu.o
 .debug_frame   0x0000000000000000       0x20 ./Peripheral/src/ch32v30x_dbgmcu.o
 .text          0x0000000000000000        0x0 ./Peripheral/src/ch32v30x_dma.o
 .data          0x0000000000000000        0x0 ./Peripheral/src/ch32v30x_dma.o
 .bss           0x0000000000000000        0x0 ./Peripheral/src/ch32v30x_dma.o
 .text.DMA_DeInit
                0x0000000000000000      0x16c ./Peripheral/src/ch32v30x_dma.o
 .text.DMA_Init
                0x0000000000000000       0x38 ./Peripheral/src/ch32v30x_dma.o
 .text.DMA_StructInit
                0x0000000000000000       0x2e ./Peripheral/src/ch32v30x_dma.o
 .text.DMA_Cmd  0x0000000000000000       0x14 ./Peripheral/src/ch32v30x_dma.o
 .text.DMA_ITConfig
                0x0000000000000000       0x12 ./Peripheral/src/ch32v30x_dma.o
 .text.DMA_SetCurrDataCounter
                0x0000000000000000        0x4 ./Peripheral/src/ch32v30x_dma.o
 .text.DMA_GetCurrDataCounter
                0x0000000000000000        0x8 ./Peripheral/src/ch32v30x_dma.o
 .text.DMA_GetFlagStatus
                0x0000000000000000       0x32 ./Peripheral/src/ch32v30x_dma.o
 .text.DMA_ClearFlag
                0x0000000000000000       0x2c ./Peripheral/src/ch32v30x_dma.o
 .text.DMA_GetITStatus
                0x0000000000000000        0x8 ./Peripheral/src/ch32v30x_dma.o
 .text.DMA_ClearITPendingBit
                0x0000000000000000        0x8 ./Peripheral/src/ch32v30x_dma.o
 .debug_info    0x0000000000000000      0xd13 ./Peripheral/src/ch32v30x_dma.o
 .debug_abbrev  0x0000000000000000      0x2fd ./Peripheral/src/ch32v30x_dma.o
 .debug_loc     0x0000000000000000      0x19a ./Peripheral/src/ch32v30x_dma.o
 .debug_aranges
                0x0000000000000000       0x60 ./Peripheral/src/ch32v30x_dma.o
 .debug_ranges  0x0000000000000000       0x50 ./Peripheral/src/ch32v30x_dma.o
 .debug_line    0x0000000000000000      0x9b6 ./Peripheral/src/ch32v30x_dma.o
 .debug_str     0x0000000000000000      0x7f3 ./Peripheral/src/ch32v30x_dma.o
 .comment       0x0000000000000000       0x34 ./Peripheral/src/ch32v30x_dma.o
 .debug_frame   0x0000000000000000       0xc0 ./Peripheral/src/ch32v30x_dma.o
 .text          0x0000000000000000        0x0 ./Peripheral/src/ch32v30x_dvp.o
 .data          0x0000000000000000        0x0 ./Peripheral/src/ch32v30x_dvp.o
 .bss           0x0000000000000000        0x0 ./Peripheral/src/ch32v30x_dvp.o
 .text.DVP_INTCfg
                0x0000000000000000       0x1a ./Peripheral/src/ch32v30x_dvp.o
 .text.DVP_Mode
                0x0000000000000000       0x40 ./Peripheral/src/ch32v30x_dvp.o
 .text.DVP_Cfg  0x0000000000000000       0x74 ./Peripheral/src/ch32v30x_dvp.o
 .debug_info    0x0000000000000000      0xbc5 ./Peripheral/src/ch32v30x_dvp.o
 .debug_abbrev  0x0000000000000000      0x241 ./Peripheral/src/ch32v30x_dvp.o
 .debug_loc     0x0000000000000000       0x74 ./Peripheral/src/ch32v30x_dvp.o
 .debug_aranges
                0x0000000000000000       0x30 ./Peripheral/src/ch32v30x_dvp.o
 .debug_ranges  0x0000000000000000       0x20 ./Peripheral/src/ch32v30x_dvp.o
 .debug_line    0x0000000000000000      0x428 ./Peripheral/src/ch32v30x_dvp.o
 .debug_str     0x0000000000000000      0x73c ./Peripheral/src/ch32v30x_dvp.o
 .comment       0x0000000000000000       0x34 ./Peripheral/src/ch32v30x_dvp.o
 .debug_frame   0x0000000000000000       0x40 ./Peripheral/src/ch32v30x_dvp.o
 .text          0x0000000000000000        0x0 ./Peripheral/src/ch32v30x_eth.o
 .data          0x0000000000000000        0x0 ./Peripheral/src/ch32v30x_eth.o
 .bss           0x0000000000000000        0x0 ./Peripheral/src/ch32v30x_eth.o
 .text.ETH_HandleTxPkt
                0x0000000000000000       0x82 ./Peripheral/src/ch32v30x_eth.o
 .text.ETH_HandleRxPkt
                0x0000000000000000       0x9a ./Peripheral/src/ch32v30x_eth.o
 .text.ETH_GetRxPktSize
                0x0000000000000000       0x28 ./Peripheral/src/ch32v30x_eth.o
 .text.ETH_DropRxPkt
                0x0000000000000000       0x3c ./Peripheral/src/ch32v30x_eth.o
 .text.ETH_PHYLoopBackCmd
                0x0000000000000000       0x42 ./Peripheral/src/ch32v30x_eth.o
 .text.ETH_MACTransmissionCmd
                0x0000000000000000       0x14 ./Peripheral/src/ch32v30x_eth.o
 .text.ETH_MACReceptionCmd
                0x0000000000000000       0x14 ./Peripheral/src/ch32v30x_eth.o
 .text.ETH_GetFlowControlBusyStatus
                0x0000000000000000        0xa ./Peripheral/src/ch32v30x_eth.o
 .text.ETH_InitiatePauseControlFrame
                0x0000000000000000        0xe ./Peripheral/src/ch32v30x_eth.o
 .text.ETH_BackPressureActivationCmd
                0x0000000000000000       0x14 ./Peripheral/src/ch32v30x_eth.o
 .text.ETH_GetMACFlagStatus
                0x0000000000000000        0xe ./Peripheral/src/ch32v30x_eth.o
 .text.ETH_GetMACITStatus
                0x0000000000000000        0x8 ./Peripheral/src/ch32v30x_eth.o
 .text.ETH_MACITConfig
                0x0000000000000000       0x1e ./Peripheral/src/ch32v30x_eth.o
 .text.ETH_MACAddressConfig
                0x0000000000000000       0x3e ./Peripheral/src/ch32v30x_eth.o
 .text.ETH_GetMACAddress
                0x0000000000000000       0x3e ./Peripheral/src/ch32v30x_eth.o
 .text.ETH_MACAddressPerfectFilterCmd
                0x0000000000000000       0x1e ./Peripheral/src/ch32v30x_eth.o
 .text.ETH_MACAddressFilterConfig
                0x0000000000000000       0x28 ./Peripheral/src/ch32v30x_eth.o
 .text.ETH_MACAddressMaskBytesFilterConfig
                0x0000000000000000       0x1e ./Peripheral/src/ch32v30x_eth.o
 .text.ETH_DMATxDescRingInit
                0x0000000000000000       0x44 ./Peripheral/src/ch32v30x_eth.o
 .text.ETH_GetDMATxDescFlagStatus
                0x0000000000000000        0xa ./Peripheral/src/ch32v30x_eth.o
 .text.ETH_GetDMATxDescCollisionCount
                0x0000000000000000        0x8 ./Peripheral/src/ch32v30x_eth.o
 .text.ETH_SetDMATxDescOwnBit
                0x0000000000000000        0xc ./Peripheral/src/ch32v30x_eth.o
 .text.ETH_DMATxDescTransmitITConfig
                0x0000000000000000       0x18 ./Peripheral/src/ch32v30x_eth.o
 .text.ETH_DMATxDescFrameSegmentConfig
                0x0000000000000000        0x8 ./Peripheral/src/ch32v30x_eth.o
 .text.ETH_DMATxDescChecksumInsertionConfig
                0x0000000000000000        0x8 ./Peripheral/src/ch32v30x_eth.o
 .text.ETH_DMATxDescCRCCmd
                0x0000000000000000       0x18 ./Peripheral/src/ch32v30x_eth.o
 .text.ETH_DMATxDescEndOfRingCmd
                0x0000000000000000       0x18 ./Peripheral/src/ch32v30x_eth.o
 .text.ETH_DMATxDescSecondAddressChainedCmd
                0x0000000000000000       0x18 ./Peripheral/src/ch32v30x_eth.o
 .text.ETH_DMATxDescShortFramePaddingCmd
                0x0000000000000000       0x18 ./Peripheral/src/ch32v30x_eth.o
 .text.ETH_DMATxDescTimeStampCmd
                0x0000000000000000       0x18 ./Peripheral/src/ch32v30x_eth.o
 .text.ETH_DMATxDescBufferSizeConfig
                0x0000000000000000        0xc ./Peripheral/src/ch32v30x_eth.o
 .text.ETH_DMARxDescRingInit
                0x0000000000000000       0x52 ./Peripheral/src/ch32v30x_eth.o
 .text.ETH_GetDMARxDescFlagStatus
                0x0000000000000000        0xa ./Peripheral/src/ch32v30x_eth.o
 .text.ETH_SetDMARxDescOwnBit
                0x0000000000000000        0xc ./Peripheral/src/ch32v30x_eth.o
 .text.ETH_GetDMARxDescFrameLength
                0x0000000000000000        0xa ./Peripheral/src/ch32v30x_eth.o
 .text.ETH_DMARxDescReceiveITConfig
                0x0000000000000000       0x14 ./Peripheral/src/ch32v30x_eth.o
 .text.ETH_DMARxDescEndOfRingCmd
                0x0000000000000000       0x14 ./Peripheral/src/ch32v30x_eth.o
 .text.ETH_DMARxDescSecondAddressChainedCmd
                0x0000000000000000       0x14 ./Peripheral/src/ch32v30x_eth.o
 .text.ETH_GetDMARxDescBufferSize
                0x0000000000000000        0xe ./Peripheral/src/ch32v30x_eth.o
 .text.ETH_GetSoftwareResetStatus
                0x0000000000000000       0x2a ./Peripheral/src/ch32v30x_eth.o
 .text.ETH_GetlinkStaus
                0x0000000000000000        0xa ./Peripheral/src/ch32v30x_eth.o
 .text.ETH_GetDMAFlagStatus
                0x0000000000000000        0xe ./Peripheral/src/ch32v30x_eth.o
 .text.ETH_DMAClearFlag
                0x0000000000000000        0x8 ./Peripheral/src/ch32v30x_eth.o
 .text.ETH_GetDMAITStatus
                0x0000000000000000        0x8 ./Peripheral/src/ch32v30x_eth.o
 .text.ETH_GetTransmitProcessState
                0x0000000000000000        0xa ./Peripheral/src/ch32v30x_eth.o
 .text.ETH_GetReceiveProcessState
                0x0000000000000000        0xc ./Peripheral/src/ch32v30x_eth.o
 .text.ETH_GetFlushTransmitFIFOStatus
                0x0000000000000000        0xc ./Peripheral/src/ch32v30x_eth.o
 .text.ETH_DMATransmissionCmd
                0x0000000000000000       0x20 ./Peripheral/src/ch32v30x_eth.o
 .text.ETH_DMAReceptionCmd
                0x0000000000000000       0x14 ./Peripheral/src/ch32v30x_eth.o
 .text.ETH_GetDMAOverflowStatus
                0x0000000000000000        0xe ./Peripheral/src/ch32v30x_eth.o
 .text.ETH_GetRxOverflowMissedFrameCounter
                0x0000000000000000        0xe ./Peripheral/src/ch32v30x_eth.o
 .text.ETH_GetBufferUnavailableMissedFrameCounter
                0x0000000000000000        0xc ./Peripheral/src/ch32v30x_eth.o
 .text.ETH_GetCurrentTxDescStartAddress
                0x0000000000000000        0x8 ./Peripheral/src/ch32v30x_eth.o
 .text.ETH_GetCurrentRxDescStartAddress
                0x0000000000000000        0x8 ./Peripheral/src/ch32v30x_eth.o
 .text.ETH_GetCurrentRxBufferAddress
                0x0000000000000000        0x8 ./Peripheral/src/ch32v30x_eth.o
 .text.ETH_ResumeDMATransmission
                0x0000000000000000        0xa ./Peripheral/src/ch32v30x_eth.o
 .text.ETH_ResumeDMAReception
                0x0000000000000000        0xa ./Peripheral/src/ch32v30x_eth.o
 .text.ETH_ResetWakeUpFrameFilterRegisterPointer
                0x0000000000000000       0x10 ./Peripheral/src/ch32v30x_eth.o
 .text.ETH_SetWakeUpFrameFilterRegister
                0x0000000000000000       0x14 ./Peripheral/src/ch32v30x_eth.o
 .text.ETH_GlobalUnicastWakeUpCmd
                0x0000000000000000       0x16 ./Peripheral/src/ch32v30x_eth.o
 .text.ETH_GetPMTFlagStatus
                0x0000000000000000        0xe ./Peripheral/src/ch32v30x_eth.o
 .text.ETH_WakeUpFrameDetectionCmd
                0x0000000000000000       0x14 ./Peripheral/src/ch32v30x_eth.o
 .text.ETH_MagicPacketDetectionCmd
                0x0000000000000000       0x14 ./Peripheral/src/ch32v30x_eth.o
 .text.ETH_PowerDownCmd
                0x0000000000000000       0x14 ./Peripheral/src/ch32v30x_eth.o
 .text.ETH_MMCCounterFreezeCmd
                0x0000000000000000       0x18 ./Peripheral/src/ch32v30x_eth.o
 .text.ETH_MMCResetOnReadCmd
                0x0000000000000000       0x18 ./Peripheral/src/ch32v30x_eth.o
 .text.ETH_MMCCounterRolloverCmd
                0x0000000000000000       0x18 ./Peripheral/src/ch32v30x_eth.o
 .text.ETH_MMCCountersReset
                0x0000000000000000       0x12 ./Peripheral/src/ch32v30x_eth.o
 .text.ETH_MMCITConfig
                0x0000000000000000       0x5c ./Peripheral/src/ch32v30x_eth.o
 .text.ETH_GetMMCITStatus
                0x0000000000000000       0x3a ./Peripheral/src/ch32v30x_eth.o
 .text.ETH_GetMMCRegister
                0x0000000000000000        0xa ./Peripheral/src/ch32v30x_eth.o
 .text.ETH_EnablePTPTimeStampAddend
                0x0000000000000000       0x12 ./Peripheral/src/ch32v30x_eth.o
 .text.ETH_EnablePTPTimeStampInterruptTrigger
                0x0000000000000000       0x12 ./Peripheral/src/ch32v30x_eth.o
 .text.ETH_EnablePTPTimeStampUpdate
                0x0000000000000000       0x12 ./Peripheral/src/ch32v30x_eth.o
 .text.ETH_InitializePTPTimeStamp
                0x0000000000000000       0x12 ./Peripheral/src/ch32v30x_eth.o
 .text.ETH_PTPUpdateMethodConfig
                0x0000000000000000       0x18 ./Peripheral/src/ch32v30x_eth.o
 .text.ETH_PTPTimeStampCmd
                0x0000000000000000       0x18 ./Peripheral/src/ch32v30x_eth.o
 .text.ETH_GetPTPFlagStatus
                0x0000000000000000       0x10 ./Peripheral/src/ch32v30x_eth.o
 .text.ETH_SetPTPSubSecondIncrement
                0x0000000000000000        0xa ./Peripheral/src/ch32v30x_eth.o
 .text.ETH_SetPTPTimeStampUpdate
                0x0000000000000000       0x10 ./Peripheral/src/ch32v30x_eth.o
 .text.ETH_SetPTPTimeStampAddend
                0x0000000000000000        0xa ./Peripheral/src/ch32v30x_eth.o
 .text.ETH_SetPTPTargetTime
                0x0000000000000000        0xe ./Peripheral/src/ch32v30x_eth.o
 .text.ETH_GetPTPRegister
                0x0000000000000000        0xa ./Peripheral/src/ch32v30x_eth.o
 .text.ETH_DMAPTPTxDescChainInit
                0x0000000000000000       0x64 ./Peripheral/src/ch32v30x_eth.o
 .text.ETH_DMAPTPRxDescChainInit
                0x0000000000000000       0x6e ./Peripheral/src/ch32v30x_eth.o
 .text.ETH_HandlePTPTxPkt
                0x0000000000000000       0xda ./Peripheral/src/ch32v30x_eth.o
 .text.ETH_HandlePTPRxPkt
                0x0000000000000000       0xca ./Peripheral/src/ch32v30x_eth.o
 .text.RGMII_TXC_Delay
                0x0000000000000000       0x36 ./Peripheral/src/ch32v30x_eth.o
 .rodata.ETH_GetSoftwareResetStatus.str1.4
                0x0000000000000000       0x15 ./Peripheral/src/ch32v30x_eth.o
 .rodata.RGMII_TXC_Delay.str1.4
                0x0000000000000000       0x22 ./Peripheral/src/ch32v30x_eth.o
 .text          0x0000000000000000        0x0 ./Peripheral/src/ch32v30x_exti.o
 .data          0x0000000000000000        0x0 ./Peripheral/src/ch32v30x_exti.o
 .bss           0x0000000000000000        0x0 ./Peripheral/src/ch32v30x_exti.o
 .text.EXTI_DeInit
                0x0000000000000000       0x22 ./Peripheral/src/ch32v30x_exti.o
 .text.EXTI_Init
                0x0000000000000000       0x6a ./Peripheral/src/ch32v30x_exti.o
 .text.EXTI_StructInit
                0x0000000000000000       0x12 ./Peripheral/src/ch32v30x_exti.o
 .text.EXTI_GenerateSWInterrupt
                0x0000000000000000       0x10 ./Peripheral/src/ch32v30x_exti.o
 .text.EXTI_GetFlagStatus
                0x0000000000000000       0x12 ./Peripheral/src/ch32v30x_exti.o
 .text.EXTI_ClearFlag
                0x0000000000000000        0xa ./Peripheral/src/ch32v30x_exti.o
 .text.EXTI_GetITStatus
                0x0000000000000000       0x1e ./Peripheral/src/ch32v30x_exti.o
 .text.EXTI_ClearITPendingBit
                0x0000000000000000        0xa ./Peripheral/src/ch32v30x_exti.o
 .debug_info    0x0000000000000000      0xc0d ./Peripheral/src/ch32v30x_exti.o
 .debug_abbrev  0x0000000000000000      0x2da ./Peripheral/src/ch32v30x_exti.o
 .debug_loc     0x0000000000000000      0x181 ./Peripheral/src/ch32v30x_exti.o
 .debug_aranges
                0x0000000000000000       0x50 ./Peripheral/src/ch32v30x_exti.o
 .debug_ranges  0x0000000000000000       0x40 ./Peripheral/src/ch32v30x_exti.o
 .debug_line    0x0000000000000000      0x5bb ./Peripheral/src/ch32v30x_exti.o
 .debug_str     0x0000000000000000      0x78d ./Peripheral/src/ch32v30x_exti.o
 .comment       0x0000000000000000       0x34 ./Peripheral/src/ch32v30x_exti.o
 .debug_frame   0x0000000000000000       0x90 ./Peripheral/src/ch32v30x_exti.o
 .text          0x0000000000000000        0x0 ./Peripheral/src/ch32v30x_flash.o
 .data          0x0000000000000000        0x0 ./Peripheral/src/ch32v30x_flash.o
 .bss           0x0000000000000000        0x0 ./Peripheral/src/ch32v30x_flash.o
 .text.FLASH_SetLatency
                0x0000000000000000       0x10 ./Peripheral/src/ch32v30x_flash.o
 .text.FLASH_HalfCycleAccessCmd
                0x0000000000000000       0x12 ./Peripheral/src/ch32v30x_flash.o
 .text.FLASH_PrefetchBufferCmd
                0x0000000000000000       0x12 ./Peripheral/src/ch32v30x_flash.o
 .text.FLASH_Unlock
                0x0000000000000000       0x1a ./Peripheral/src/ch32v30x_flash.o
 .text.FLASH_UnlockBank1
                0x0000000000000000        0x8 ./Peripheral/src/ch32v30x_flash.o
 .text.FLASH_Lock
                0x0000000000000000        0xe ./Peripheral/src/ch32v30x_flash.o
 .text.FLASH_LockBank1
                0x0000000000000000        0x8 ./Peripheral/src/ch32v30x_flash.o
 .text.FLASH_GetUserOptionByte
                0x0000000000000000        0xa ./Peripheral/src/ch32v30x_flash.o
 .text.FLASH_GetWriteProtectionOptionByte
                0x0000000000000000        0x8 ./Peripheral/src/ch32v30x_flash.o
 .text.FLASH_GetReadOutProtectionStatus
                0x0000000000000000        0xc ./Peripheral/src/ch32v30x_flash.o
 .text.FLASH_GetPrefetchBufferStatus
                0x0000000000000000        0xc ./Peripheral/src/ch32v30x_flash.o
 .text.FLASH_ITConfig
                0x0000000000000000       0x1e ./Peripheral/src/ch32v30x_flash.o
 .text.FLASH_GetFlagStatus
                0x0000000000000000       0x1e ./Peripheral/src/ch32v30x_flash.o
 .text.FLASH_ClearFlag
                0x0000000000000000        0x8 ./Peripheral/src/ch32v30x_flash.o
 .text.FLASH_GetStatus
                0x0000000000000000       0x20 ./Peripheral/src/ch32v30x_flash.o
 .text.FLASH_GetBank1Status
                0x0000000000000000       0x20 ./Peripheral/src/ch32v30x_flash.o
 .text.FLASH_WaitForLastOperation
                0x0000000000000000       0x36 ./Peripheral/src/ch32v30x_flash.o
 .text.FLASH_ErasePage
                0x0000000000000000       0x52 ./Peripheral/src/ch32v30x_flash.o
 .text.FLASH_EraseAllPages
                0x0000000000000000       0x4a ./Peripheral/src/ch32v30x_flash.o
 .text.FLASH_EraseAllBank1Pages
                0x0000000000000000        0x8 ./Peripheral/src/ch32v30x_flash.o
 .text.FLASH_EraseOptionBytes
                0x0000000000000000       0xb6 ./Peripheral/src/ch32v30x_flash.o
 .text.FLASH_ProgramWord
                0x0000000000000000       0x74 ./Peripheral/src/ch32v30x_flash.o
 .text.FLASH_ProgramHalfWord
                0x0000000000000000       0x4c ./Peripheral/src/ch32v30x_flash.o
 .text.FLASH_ProgramOptionByteData
                0x0000000000000000       0x6a ./Peripheral/src/ch32v30x_flash.o
 .text.FLASH_EnableWriteProtection
                0x0000000000000000       0xf4 ./Peripheral/src/ch32v30x_flash.o
 .text.FLASH_ReadOutProtection
                0x0000000000000000       0xbe ./Peripheral/src/ch32v30x_flash.o
 .text.FLASH_UserOptionByteConfig
                0x0000000000000000       0x7a ./Peripheral/src/ch32v30x_flash.o
 .text.FLASH_WaitForLastBank1Operation
                0x0000000000000000        0x8 ./Peripheral/src/ch32v30x_flash.o
 .text.FLASH_Unlock_Fast
                0x0000000000000000       0x1e ./Peripheral/src/ch32v30x_flash.o
 .text.FLASH_Lock_Fast
                0x0000000000000000        0x8 ./Peripheral/src/ch32v30x_flash.o
 .text.FLASH_ErasePage_Fast
                0x0000000000000000       0x2e ./Peripheral/src/ch32v30x_flash.o
 .text.FLASH_EraseBlock_32K_Fast
                0x0000000000000000       0x30 ./Peripheral/src/ch32v30x_flash.o
 .text.FLASH_EraseBlock_64K_Fast
                0x0000000000000000       0x30 ./Peripheral/src/ch32v30x_flash.o
 .text.FLASH_ProgramPage_Fast
                0x0000000000000000       0x6c ./Peripheral/src/ch32v30x_flash.o
 .debug_info    0x0000000000000000     0x1394 ./Peripheral/src/ch32v30x_flash.o
 .debug_abbrev  0x0000000000000000      0x415 ./Peripheral/src/ch32v30x_flash.o
 .debug_loc     0x0000000000000000      0x934 ./Peripheral/src/ch32v30x_flash.o
 .debug_aranges
                0x0000000000000000      0x100 ./Peripheral/src/ch32v30x_flash.o
 .debug_ranges  0x0000000000000000       0xf0 ./Peripheral/src/ch32v30x_flash.o
 .debug_line    0x0000000000000000     0x16af ./Peripheral/src/ch32v30x_flash.o
 .debug_str     0x0000000000000000      0xad2 ./Peripheral/src/ch32v30x_flash.o
 .comment       0x0000000000000000       0x34 ./Peripheral/src/ch32v30x_flash.o
 .debug_frame   0x0000000000000000      0x31c ./Peripheral/src/ch32v30x_flash.o
 .text          0x0000000000000000        0x0 ./Peripheral/src/ch32v30x_fsmc.o
 .data          0x0000000000000000        0x0 ./Peripheral/src/ch32v30x_fsmc.o
 .bss           0x0000000000000000        0x0 ./Peripheral/src/ch32v30x_fsmc.o
 .text.FSMC_NORSRAMDeInit
                0x0000000000000000       0x3c ./Peripheral/src/ch32v30x_fsmc.o
 .text.FSMC_NANDDeInit
                0x0000000000000000       0x36 ./Peripheral/src/ch32v30x_fsmc.o
 .text.FSMC_PCCARDDeInit
                0x0000000000000000       0x22 ./Peripheral/src/ch32v30x_fsmc.o
 .text.FSMC_NANDInit
                0x0000000000000000       0x70 ./Peripheral/src/ch32v30x_fsmc.o
 .text.FSMC_PCCARDInit
                0x0000000000000000       0x68 ./Peripheral/src/ch32v30x_fsmc.o
 .text.FSMC_NORSRAMStructInit
                0x0000000000000000       0x60 ./Peripheral/src/ch32v30x_fsmc.o
 .text.FSMC_NANDStructInit
                0x0000000000000000       0x36 ./Peripheral/src/ch32v30x_fsmc.o
 .text.FSMC_PCCARDStructInit
                0x0000000000000000       0x30 ./Peripheral/src/ch32v30x_fsmc.o
 .text.FSMC_NANDCmd
                0x0000000000000000       0x48 ./Peripheral/src/ch32v30x_fsmc.o
 .text.FSMC_PCCARDCmd
                0x0000000000000000       0x2a ./Peripheral/src/ch32v30x_fsmc.o
 .text.FSMC_NANDECCCmd
                0x0000000000000000       0x4a ./Peripheral/src/ch32v30x_fsmc.o
 .text.FSMC_GetECC
                0x0000000000000000       0x18 ./Peripheral/src/ch32v30x_fsmc.o
 .text.FSMC_ITConfig
                0x0000000000000000       0x70 ./Peripheral/src/ch32v30x_fsmc.o
 .text.FSMC_GetFlagStatus
                0x0000000000000000       0x30 ./Peripheral/src/ch32v30x_fsmc.o
 .text.FSMC_ClearFlag
                0x0000000000000000       0x3e ./Peripheral/src/ch32v30x_fsmc.o
 .text.FSMC_GetITStatus
                0x0000000000000000       0x40 ./Peripheral/src/ch32v30x_fsmc.o
 .text.FSMC_ClearITPendingBit
                0x0000000000000000       0x40 ./Peripheral/src/ch32v30x_fsmc.o
 .text          0x0000000000000000        0x0 ./Peripheral/src/ch32v30x_gpio.o
 .data          0x0000000000000000        0x0 ./Peripheral/src/ch32v30x_gpio.o
 .bss           0x0000000000000000        0x0 ./Peripheral/src/ch32v30x_gpio.o
 .text.GPIO_DeInit
                0x0000000000000000       0xda ./Peripheral/src/ch32v30x_gpio.o
 .text.GPIO_AFIODeInit
                0x0000000000000000       0x20 ./Peripheral/src/ch32v30x_gpio.o
 .text.GPIO_StructInit
                0x0000000000000000       0x10 ./Peripheral/src/ch32v30x_gpio.o
 .text.GPIO_ReadInputDataBit
                0x0000000000000000        0xa ./Peripheral/src/ch32v30x_gpio.o
 .text.GPIO_ReadInputData
                0x0000000000000000        0x8 ./Peripheral/src/ch32v30x_gpio.o
 .text.GPIO_ReadOutputDataBit
                0x0000000000000000        0xa ./Peripheral/src/ch32v30x_gpio.o
 .text.GPIO_ReadOutputData
                0x0000000000000000        0x8 ./Peripheral/src/ch32v30x_gpio.o
 .text.GPIO_Write
                0x0000000000000000        0x4 ./Peripheral/src/ch32v30x_gpio.o
 .text.GPIO_PinLockConfig
                0x0000000000000000       0x10 ./Peripheral/src/ch32v30x_gpio.o
 .text.GPIO_EventOutputConfig
                0x0000000000000000       0x18 ./Peripheral/src/ch32v30x_gpio.o
 .text.GPIO_EventOutputCmd
                0x0000000000000000       0x16 ./Peripheral/src/ch32v30x_gpio.o
 .text.GPIO_PinRemapConfig
                0x0000000000000000       0x86 ./Peripheral/src/ch32v30x_gpio.o
 .text.GPIO_EXTILineConfig
                0x0000000000000000       0x2c ./Peripheral/src/ch32v30x_gpio.o
 .text.GPIO_ETH_MediaInterfaceConfig
                0x0000000000000000       0x24 ./Peripheral/src/ch32v30x_gpio.o
 .text          0x0000000000000000        0x0 ./Peripheral/src/ch32v30x_i2c.o
 .data          0x0000000000000000        0x0 ./Peripheral/src/ch32v30x_i2c.o
 .bss           0x0000000000000000        0x0 ./Peripheral/src/ch32v30x_i2c.o
 .text.I2C_DeInit
                0x0000000000000000       0x44 ./Peripheral/src/ch32v30x_i2c.o
 .text.I2C_StructInit
                0x0000000000000000       0x1a ./Peripheral/src/ch32v30x_i2c.o
 .text.I2C_DMACmd
                0x0000000000000000       0x22 ./Peripheral/src/ch32v30x_i2c.o
 .text.I2C_DMALastTransferCmd
                0x0000000000000000       0x1c ./Peripheral/src/ch32v30x_i2c.o
 .text.I2C_OwnAddress2Config
                0x0000000000000000       0x18 ./Peripheral/src/ch32v30x_i2c.o
 .text.I2C_DualAddressCmd
                0x0000000000000000       0x1c ./Peripheral/src/ch32v30x_i2c.o
 .text.I2C_GeneralCallCmd
                0x0000000000000000       0x1e ./Peripheral/src/ch32v30x_i2c.o
 .text.I2C_ITConfig
                0x0000000000000000       0x16 ./Peripheral/src/ch32v30x_i2c.o
 .text.I2C_ReceiveData
                0x0000000000000000        0xa ./Peripheral/src/ch32v30x_i2c.o
 .text.I2C_ReadRegister
                0x0000000000000000       0x16 ./Peripheral/src/ch32v30x_i2c.o
 .text.I2C_SoftwareResetCmd
                0x0000000000000000       0x16 ./Peripheral/src/ch32v30x_i2c.o
 .text.I2C_NACKPositionConfig
                0x0000000000000000       0x26 ./Peripheral/src/ch32v30x_i2c.o
 .text.I2C_SMBusAlertConfig
                0x0000000000000000       0x20 ./Peripheral/src/ch32v30x_i2c.o
 .text.I2C_TransmitPEC
                0x0000000000000000       0x1c ./Peripheral/src/ch32v30x_i2c.o
 .text.I2C_PECPositionConfig
                0x0000000000000000        0x8 ./Peripheral/src/ch32v30x_i2c.o
 .text.I2C_CalculatePEC
                0x0000000000000000       0x1e ./Peripheral/src/ch32v30x_i2c.o
 .text.I2C_GetPEC
                0x0000000000000000        0x8 ./Peripheral/src/ch32v30x_i2c.o
 .text.I2C_ARPCmd
                0x0000000000000000       0x1c ./Peripheral/src/ch32v30x_i2c.o
 .text.I2C_StretchClockCmd
                0x0000000000000000       0x1e ./Peripheral/src/ch32v30x_i2c.o
 .text.I2C_FastModeDutyCycleConfig
                0x0000000000000000       0x20 ./Peripheral/src/ch32v30x_i2c.o
 .text.I2C_GetLastEvent
                0x0000000000000000       0x12 ./Peripheral/src/ch32v30x_i2c.o
 .text.I2C_ClearFlag
                0x0000000000000000        0xe ./Peripheral/src/ch32v30x_i2c.o
 .text.I2C_GetITStatus
                0x0000000000000000       0x24 ./Peripheral/src/ch32v30x_i2c.o
 .text.I2C_ClearITPendingBit
                0x0000000000000000        0xe ./Peripheral/src/ch32v30x_i2c.o
 .text          0x0000000000000000        0x0 ./Peripheral/src/ch32v30x_iwdg.o
 .data          0x0000000000000000        0x0 ./Peripheral/src/ch32v30x_iwdg.o
 .bss           0x0000000000000000        0x0 ./Peripheral/src/ch32v30x_iwdg.o
 .text.IWDG_WriteAccessCmd
                0x0000000000000000        0x8 ./Peripheral/src/ch32v30x_iwdg.o
 .text.IWDG_SetPrescaler
                0x0000000000000000        0x8 ./Peripheral/src/ch32v30x_iwdg.o
 .text.IWDG_SetReload
                0x0000000000000000        0x8 ./Peripheral/src/ch32v30x_iwdg.o
 .text.IWDG_ReloadCounter
                0x0000000000000000        0xe ./Peripheral/src/ch32v30x_iwdg.o
 .text.IWDG_Enable
                0x0000000000000000        0xe ./Peripheral/src/ch32v30x_iwdg.o
 .text.IWDG_GetFlagStatus
                0x0000000000000000        0xe ./Peripheral/src/ch32v30x_iwdg.o
 .debug_info    0x0000000000000000      0xab4 ./Peripheral/src/ch32v30x_iwdg.o
 .debug_abbrev  0x0000000000000000      0x282 ./Peripheral/src/ch32v30x_iwdg.o
 .debug_loc     0x0000000000000000       0x68 ./Peripheral/src/ch32v30x_iwdg.o
 .debug_aranges
                0x0000000000000000       0x48 ./Peripheral/src/ch32v30x_iwdg.o
 .debug_ranges  0x0000000000000000       0x38 ./Peripheral/src/ch32v30x_iwdg.o
 .debug_line    0x0000000000000000      0x395 ./Peripheral/src/ch32v30x_iwdg.o
 .debug_str     0x0000000000000000      0x69f ./Peripheral/src/ch32v30x_iwdg.o
 .comment       0x0000000000000000       0x34 ./Peripheral/src/ch32v30x_iwdg.o
 .debug_frame   0x0000000000000000       0x70 ./Peripheral/src/ch32v30x_iwdg.o
 .text          0x0000000000000000        0x0 ./Peripheral/src/ch32v30x_misc.o
 .data          0x0000000000000000        0x0 ./Peripheral/src/ch32v30x_misc.o
 .bss           0x0000000000000000        0x0 ./Peripheral/src/ch32v30x_misc.o
 .text.NVIC_PriorityGroupConfig
                0x0000000000000000        0xa ./Peripheral/src/ch32v30x_misc.o
 .text.NVIC_Init
                0x0000000000000000       0xbc ./Peripheral/src/ch32v30x_misc.o
 .sbss.NVIC_Priority_Group
                0x0000000000000000        0x4 ./Peripheral/src/ch32v30x_misc.o
 .debug_info    0x0000000000000000      0xf6a ./Peripheral/src/ch32v30x_misc.o
 .debug_abbrev  0x0000000000000000      0x2d9 ./Peripheral/src/ch32v30x_misc.o
 .debug_loc     0x0000000000000000       0xce ./Peripheral/src/ch32v30x_misc.o
 .debug_aranges
                0x0000000000000000       0x28 ./Peripheral/src/ch32v30x_misc.o
 .debug_ranges  0x0000000000000000       0x48 ./Peripheral/src/ch32v30x_misc.o
 .debug_line    0x0000000000000000      0x4b7 ./Peripheral/src/ch32v30x_misc.o
 .debug_str     0x0000000000000000      0xccb ./Peripheral/src/ch32v30x_misc.o
 .comment       0x0000000000000000       0x34 ./Peripheral/src/ch32v30x_misc.o
 .debug_frame   0x0000000000000000       0x30 ./Peripheral/src/ch32v30x_misc.o
 .text          0x0000000000000000        0x0 ./Peripheral/src/ch32v30x_opa.o
 .data          0x0000000000000000        0x0 ./Peripheral/src/ch32v30x_opa.o
 .bss           0x0000000000000000        0x0 ./Peripheral/src/ch32v30x_opa.o
 .text.OPA_DeInit
                0x0000000000000000        0xa ./Peripheral/src/ch32v30x_opa.o
 .text.OPA_Init
                0x0000000000000000       0x36 ./Peripheral/src/ch32v30x_opa.o
 .text.OPA_StructInit
                0x0000000000000000       0x12 ./Peripheral/src/ch32v30x_opa.o
 .text.OPA_Cmd  0x0000000000000000       0x2c ./Peripheral/src/ch32v30x_opa.o
 .debug_info    0x0000000000000000      0xb28 ./Peripheral/src/ch32v30x_opa.o
 .debug_abbrev  0x0000000000000000      0x252 ./Peripheral/src/ch32v30x_opa.o
 .debug_loc     0x0000000000000000       0x56 ./Peripheral/src/ch32v30x_opa.o
 .debug_aranges
                0x0000000000000000       0x38 ./Peripheral/src/ch32v30x_opa.o
 .debug_ranges  0x0000000000000000       0x28 ./Peripheral/src/ch32v30x_opa.o
 .debug_line    0x0000000000000000      0x43c ./Peripheral/src/ch32v30x_opa.o
 .debug_str     0x0000000000000000      0x6b5 ./Peripheral/src/ch32v30x_opa.o
 .comment       0x0000000000000000       0x34 ./Peripheral/src/ch32v30x_opa.o
 .debug_frame   0x0000000000000000       0x50 ./Peripheral/src/ch32v30x_opa.o
 .text          0x0000000000000000        0x0 ./Peripheral/src/ch32v30x_pwr.o
 .data          0x0000000000000000        0x0 ./Peripheral/src/ch32v30x_pwr.o
 .bss           0x0000000000000000        0x0 ./Peripheral/src/ch32v30x_pwr.o
 .text.PWR_DeInit
                0x0000000000000000       0x24 ./Peripheral/src/ch32v30x_pwr.o
 .text.PWR_BackupAccessCmd
                0x0000000000000000       0x16 ./Peripheral/src/ch32v30x_pwr.o
 .text.PWR_PVDCmd
                0x0000000000000000       0x14 ./Peripheral/src/ch32v30x_pwr.o
 .text.PWR_PVDLevelConfig
                0x0000000000000000       0x10 ./Peripheral/src/ch32v30x_pwr.o
 .text.PWR_WakeUpPinCmd
                0x0000000000000000       0x16 ./Peripheral/src/ch32v30x_pwr.o
 .text.PWR_EnterSTOPMode
                0x0000000000000000       0x68 ./Peripheral/src/ch32v30x_pwr.o
 .text.PWR_EnterSTANDBYMode
                0x0000000000000000       0x34 ./Peripheral/src/ch32v30x_pwr.o
 .text.PWR_GetFlagStatus
                0x0000000000000000        0xe ./Peripheral/src/ch32v30x_pwr.o
 .text.PWR_ClearFlag
                0x0000000000000000        0xe ./Peripheral/src/ch32v30x_pwr.o
 .text.PWR_EnterSTOPMode_RAM
                0x0000000000000000       0x6e ./Peripheral/src/ch32v30x_pwr.o
 .text.PWR_EnterSTOPMode_RAM_LV
                0x0000000000000000       0x6e ./Peripheral/src/ch32v30x_pwr.o
 .text.PWR_EnterSTANDBYMode_RAM
                0x0000000000000000       0x30 ./Peripheral/src/ch32v30x_pwr.o
 .text.PWR_EnterSTANDBYMode_RAM_LV
                0x0000000000000000       0x30 ./Peripheral/src/ch32v30x_pwr.o
 .debug_info    0x0000000000000000      0xf8b ./Peripheral/src/ch32v30x_pwr.o
 .debug_abbrev  0x0000000000000000      0x365 ./Peripheral/src/ch32v30x_pwr.o
 .debug_loc     0x0000000000000000      0x26f ./Peripheral/src/ch32v30x_pwr.o
 .debug_aranges
                0x0000000000000000       0x80 ./Peripheral/src/ch32v30x_pwr.o
 .debug_ranges  0x0000000000000000       0xb8 ./Peripheral/src/ch32v30x_pwr.o
 .debug_line    0x0000000000000000      0xa96 ./Peripheral/src/ch32v30x_pwr.o
 .debug_str     0x0000000000000000      0x81e ./Peripheral/src/ch32v30x_pwr.o
 .comment       0x0000000000000000       0x34 ./Peripheral/src/ch32v30x_pwr.o
 .debug_frame   0x0000000000000000       0xec ./Peripheral/src/ch32v30x_pwr.o
 .text          0x0000000000000000        0x0 ./Peripheral/src/ch32v30x_rcc.o
 .data          0x0000000000000000        0x0 ./Peripheral/src/ch32v30x_rcc.o
 .bss           0x0000000000000000        0x0 ./Peripheral/src/ch32v30x_rcc.o
 .text.RCC_DeInit
                0x0000000000000000       0x42 ./Peripheral/src/ch32v30x_rcc.o
 .text.RCC_HSEConfig
                0x0000000000000000       0x3c ./Peripheral/src/ch32v30x_rcc.o
 .text.RCC_AdjustHSICalibrationValue
                0x0000000000000000       0x12 ./Peripheral/src/ch32v30x_rcc.o
 .text.RCC_HSICmd
                0x0000000000000000       0x14 ./Peripheral/src/ch32v30x_rcc.o
 .text.RCC_PLLConfig
                0x0000000000000000       0x16 ./Peripheral/src/ch32v30x_rcc.o
 .text.RCC_PLLCmd
                0x0000000000000000       0x24 ./Peripheral/src/ch32v30x_rcc.o
 .text.RCC_SYSCLKConfig
                0x0000000000000000        0xe ./Peripheral/src/ch32v30x_rcc.o
 .text.RCC_GetSYSCLKSource
                0x0000000000000000        0xa ./Peripheral/src/ch32v30x_rcc.o
 .text.RCC_HCLKConfig
                0x0000000000000000       0x10 ./Peripheral/src/ch32v30x_rcc.o
 .text.RCC_PCLK1Config
                0x0000000000000000       0x10 ./Peripheral/src/ch32v30x_rcc.o
 .text.RCC_PCLK2Config
                0x0000000000000000       0x16 ./Peripheral/src/ch32v30x_rcc.o
 .text.RCC_ITConfig
                0x0000000000000000       0x1a ./Peripheral/src/ch32v30x_rcc.o
 .text.RCC_ADCCLKConfig
                0x0000000000000000       0x12 ./Peripheral/src/ch32v30x_rcc.o
 .text.RCC_LSEConfig
                0x0000000000000000       0x28 ./Peripheral/src/ch32v30x_rcc.o
 .text.RCC_LSICmd
                0x0000000000000000       0x14 ./Peripheral/src/ch32v30x_rcc.o
 .text.RCC_RTCCLKConfig
                0x0000000000000000        0xc ./Peripheral/src/ch32v30x_rcc.o
 .text.RCC_RTCCLKCmd
                0x0000000000000000       0x20 ./Peripheral/src/ch32v30x_rcc.o
 .text.RCC_APB2PeriphResetCmd
                0x0000000000000000       0x1e ./Peripheral/src/ch32v30x_rcc.o
 .text.RCC_APB1PeriphResetCmd
                0x0000000000000000       0x1e ./Peripheral/src/ch32v30x_rcc.o
 .text.RCC_BackupResetCmd
                0x0000000000000000       0x20 ./Peripheral/src/ch32v30x_rcc.o
 .text.RCC_ClockSecuritySystemCmd
                0x0000000000000000       0x24 ./Peripheral/src/ch32v30x_rcc.o
 .text.RCC_WaitForHSEStartUp
                0x0000000000000000       0x40 ./Peripheral/src/ch32v30x_rcc.o
 .text.RCC_ClearFlag
                0x0000000000000000       0x10 ./Peripheral/src/ch32v30x_rcc.o
 .text.RCC_GetITStatus
                0x0000000000000000        0xe ./Peripheral/src/ch32v30x_rcc.o
 .text.RCC_ClearITPendingBit
                0x0000000000000000        0xa ./Peripheral/src/ch32v30x_rcc.o
 .text.RCC_PREDIV1Config
                0x0000000000000000       0x14 ./Peripheral/src/ch32v30x_rcc.o
 .text.RCC_PLL2Config
                0x0000000000000000       0x14 ./Peripheral/src/ch32v30x_rcc.o
 .text.RCC_PLL2Cmd
                0x0000000000000000       0x24 ./Peripheral/src/ch32v30x_rcc.o
 .text.RCC_OTGFSCLKConfig
                0x0000000000000000       0x1a ./Peripheral/src/ch32v30x_rcc.o
 .text.RCC_I2S2CLKConfig
                0x0000000000000000       0x18 ./Peripheral/src/ch32v30x_rcc.o
 .text.RCC_I2S3CLKConfig
                0x0000000000000000       0x1a ./Peripheral/src/ch32v30x_rcc.o
 .text.RCC_ADCCLKADJcmd
                0x0000000000000000       0x18 ./Peripheral/src/ch32v30x_rcc.o
 .text.RCC_RNGCLKConfig
                0x0000000000000000       0x1a ./Peripheral/src/ch32v30x_rcc.o
 .text.RCC_ETH1GCLKConfig
                0x0000000000000000       0x1a ./Peripheral/src/ch32v30x_rcc.o
 .text.RCC_ETH1G_125Mcmd
                0x0000000000000000       0x24 ./Peripheral/src/ch32v30x_rcc.o
 .text.RCC_USBHSConfig
                0x0000000000000000       0x1a ./Peripheral/src/ch32v30x_rcc.o
 .text.RCC_USBHSPLLCLKConfig
                0x0000000000000000       0x1a ./Peripheral/src/ch32v30x_rcc.o
 .text.RCC_USBHSPLLCKREFCLKConfig
                0x0000000000000000       0x1a ./Peripheral/src/ch32v30x_rcc.o
 .text.RCC_USBHSPHYPLLALIVEcmd
                0x0000000000000000       0x24 ./Peripheral/src/ch32v30x_rcc.o
 .text.RCC_USBCLK48MConfig
                0x0000000000000000       0x16 ./Peripheral/src/ch32v30x_rcc.o
 .text          0x0000000000000000        0x0 ./Peripheral/src/ch32v30x_rng.o
 .data          0x0000000000000000        0x0 ./Peripheral/src/ch32v30x_rng.o
 .bss           0x0000000000000000        0x0 ./Peripheral/src/ch32v30x_rng.o
 .text.RNG_Cmd  0x0000000000000000       0x18 ./Peripheral/src/ch32v30x_rng.o
 .text.RNG_GetRandomNumber
                0x0000000000000000        0xa ./Peripheral/src/ch32v30x_rng.o
 .text.RNG_ITConfig
                0x0000000000000000       0x18 ./Peripheral/src/ch32v30x_rng.o
 .text.RNG_GetFlagStatus
                0x0000000000000000       0x12 ./Peripheral/src/ch32v30x_rng.o
 .text.RNG_ClearFlag
                0x0000000000000000       0x10 ./Peripheral/src/ch32v30x_rng.o
 .text.RNG_GetITStatus
                0x0000000000000000        0x8 ./Peripheral/src/ch32v30x_rng.o
 .text.RNG_ClearITPendingBit
                0x0000000000000000       0x12 ./Peripheral/src/ch32v30x_rng.o
 .debug_info    0x0000000000000000      0xb02 ./Peripheral/src/ch32v30x_rng.o
 .debug_abbrev  0x0000000000000000      0x2c8 ./Peripheral/src/ch32v30x_rng.o
 .debug_loc     0x0000000000000000       0xa8 ./Peripheral/src/ch32v30x_rng.o
 .debug_aranges
                0x0000000000000000       0x48 ./Peripheral/src/ch32v30x_rng.o
 .debug_ranges  0x0000000000000000       0x38 ./Peripheral/src/ch32v30x_rng.o
 .debug_line    0x0000000000000000      0x410 ./Peripheral/src/ch32v30x_rng.o
 .debug_str     0x0000000000000000      0x68c ./Peripheral/src/ch32v30x_rng.o
 .comment       0x0000000000000000       0x34 ./Peripheral/src/ch32v30x_rng.o
 .debug_frame   0x0000000000000000       0x80 ./Peripheral/src/ch32v30x_rng.o
 .text          0x0000000000000000        0x0 ./Peripheral/src/ch32v30x_rtc.o
 .data          0x0000000000000000        0x0 ./Peripheral/src/ch32v30x_rtc.o
 .bss           0x0000000000000000        0x0 ./Peripheral/src/ch32v30x_rtc.o
 .text.RTC_ITConfig
                0x0000000000000000       0x1a ./Peripheral/src/ch32v30x_rtc.o
 .text.RTC_EnterConfigMode
                0x0000000000000000       0x12 ./Peripheral/src/ch32v30x_rtc.o
 .text.RTC_ExitConfigMode
                0x0000000000000000       0x18 ./Peripheral/src/ch32v30x_rtc.o
 .text.RTC_GetCounter
                0x0000000000000000       0x38 ./Peripheral/src/ch32v30x_rtc.o
 .text.RTC_SetCounter
                0x0000000000000000       0x30 ./Peripheral/src/ch32v30x_rtc.o
 .text.RTC_SetPrescaler
                0x0000000000000000       0x32 ./Peripheral/src/ch32v30x_rtc.o
 .text.RTC_SetAlarm
                0x0000000000000000       0x30 ./Peripheral/src/ch32v30x_rtc.o
 .text.RTC_GetDivider
                0x0000000000000000       0x18 ./Peripheral/src/ch32v30x_rtc.o
 .text.RTC_WaitForLastTask
                0x0000000000000000       0x10 ./Peripheral/src/ch32v30x_rtc.o
 .text.RTC_WaitForSynchro
                0x0000000000000000       0x24 ./Peripheral/src/ch32v30x_rtc.o
 .text.RTC_GetFlagStatus
                0x0000000000000000       0x14 ./Peripheral/src/ch32v30x_rtc.o
 .text.RTC_ClearFlag
                0x0000000000000000       0x14 ./Peripheral/src/ch32v30x_rtc.o
 .text.RTC_GetITStatus
                0x0000000000000000       0x20 ./Peripheral/src/ch32v30x_rtc.o
 .text.RTC_ClearITPendingBit
                0x0000000000000000        0x8 ./Peripheral/src/ch32v30x_rtc.o
 .debug_info    0x0000000000000000      0xd4d ./Peripheral/src/ch32v30x_rtc.o
 .debug_abbrev  0x0000000000000000      0x2ce ./Peripheral/src/ch32v30x_rtc.o
 .debug_loc     0x0000000000000000      0x272 ./Peripheral/src/ch32v30x_rtc.o
 .debug_aranges
                0x0000000000000000       0x80 ./Peripheral/src/ch32v30x_rtc.o
 .debug_ranges  0x0000000000000000       0x70 ./Peripheral/src/ch32v30x_rtc.o
 .debug_line    0x0000000000000000      0x7c1 ./Peripheral/src/ch32v30x_rtc.o
 .debug_str     0x0000000000000000      0x7ec ./Peripheral/src/ch32v30x_rtc.o
 .comment       0x0000000000000000       0x34 ./Peripheral/src/ch32v30x_rtc.o
 .debug_frame   0x0000000000000000      0x114 ./Peripheral/src/ch32v30x_rtc.o
 .text          0x0000000000000000        0x0 ./Peripheral/src/ch32v30x_sdio.o
 .data          0x0000000000000000        0x0 ./Peripheral/src/ch32v30x_sdio.o
 .bss           0x0000000000000000        0x0 ./Peripheral/src/ch32v30x_sdio.o
 .text.SDIO_DeInit
                0x0000000000000000       0x30 ./Peripheral/src/ch32v30x_sdio.o
 .text.SDIO_Init
                0x0000000000000000       0x2c ./Peripheral/src/ch32v30x_sdio.o
 .text.SDIO_StructInit
                0x0000000000000000       0x1a ./Peripheral/src/ch32v30x_sdio.o
 .text.SDIO_ClockCmd
                0x0000000000000000       0x16 ./Peripheral/src/ch32v30x_sdio.o
 .text.SDIO_SetPowerState
                0x0000000000000000       0x12 ./Peripheral/src/ch32v30x_sdio.o
 .text.SDIO_GetPowerState
                0x0000000000000000        0xa ./Peripheral/src/ch32v30x_sdio.o
 .text.SDIO_ITConfig
                0x0000000000000000       0x1e ./Peripheral/src/ch32v30x_sdio.o
 .text.SDIO_DMACmd
                0x0000000000000000       0x14 ./Peripheral/src/ch32v30x_sdio.o
 .text.SDIO_SendCommand
                0x0000000000000000       0x22 ./Peripheral/src/ch32v30x_sdio.o
 .text.SDIO_CmdStructInit
                0x0000000000000000       0x16 ./Peripheral/src/ch32v30x_sdio.o
 .text.SDIO_GetCommandResponse
                0x0000000000000000        0xc ./Peripheral/src/ch32v30x_sdio.o
 .text.SDIO_GetResponse
                0x0000000000000000       0x16 ./Peripheral/src/ch32v30x_sdio.o
 .text.SDIO_DataConfig
                0x0000000000000000       0x26 ./Peripheral/src/ch32v30x_sdio.o
 .text.SDIO_DataStructInit
                0x0000000000000000       0x1a ./Peripheral/src/ch32v30x_sdio.o
 .text.SDIO_GetDataCounter
                0x0000000000000000        0x8 ./Peripheral/src/ch32v30x_sdio.o
 .text.SDIO_ReadData
                0x0000000000000000        0xa ./Peripheral/src/ch32v30x_sdio.o
 .text.SDIO_WriteData
                0x0000000000000000        0xa ./Peripheral/src/ch32v30x_sdio.o
 .text.SDIO_GetFIFOCount
                0x0000000000000000        0x8 ./Peripheral/src/ch32v30x_sdio.o
 .text.SDIO_StartSDIOReadWait
                0x0000000000000000       0x16 ./Peripheral/src/ch32v30x_sdio.o
 .text.SDIO_StopSDIOReadWait
                0x0000000000000000       0x16 ./Peripheral/src/ch32v30x_sdio.o
 .text.SDIO_SetSDIOReadWaitMode
                0x0000000000000000       0x16 ./Peripheral/src/ch32v30x_sdio.o
 .text.SDIO_SetSDIOOperation
                0x0000000000000000       0x1e ./Peripheral/src/ch32v30x_sdio.o
 .text.SDIO_SendSDIOSuspendCmd
                0x0000000000000000       0x1e ./Peripheral/src/ch32v30x_sdio.o
 .text.SDIO_CommandCompletionCmd
                0x0000000000000000       0x20 ./Peripheral/src/ch32v30x_sdio.o
 .text.SDIO_CEATAITCmd
                0x0000000000000000       0x20 ./Peripheral/src/ch32v30x_sdio.o
 .text.SDIO_SendCEATACmd
                0x0000000000000000       0x20 ./Peripheral/src/ch32v30x_sdio.o
 .text.SDIO_GetFlagStatus
                0x0000000000000000        0xe ./Peripheral/src/ch32v30x_sdio.o
 .text.SDIO_ClearFlag
                0x0000000000000000        0x8 ./Peripheral/src/ch32v30x_sdio.o
 .text.SDIO_GetITStatus
                0x0000000000000000        0x8 ./Peripheral/src/ch32v30x_sdio.o
 .text.SDIO_ClearITPendingBit
                0x0000000000000000        0x8 ./Peripheral/src/ch32v30x_sdio.o
 .debug_info    0x0000000000000000     0x10cd ./Peripheral/src/ch32v30x_sdio.o
 .debug_abbrev  0x0000000000000000      0x3a3 ./Peripheral/src/ch32v30x_sdio.o
 .debug_loc     0x0000000000000000      0x1bb ./Peripheral/src/ch32v30x_sdio.o
 .debug_aranges
                0x0000000000000000       0xf8 ./Peripheral/src/ch32v30x_sdio.o
 .debug_ranges  0x0000000000000000       0xe8 ./Peripheral/src/ch32v30x_sdio.o
 .debug_line    0x0000000000000000      0xcdd ./Peripheral/src/ch32v30x_sdio.o
 .debug_str     0x0000000000000000      0xa5e ./Peripheral/src/ch32v30x_sdio.o
 .comment       0x0000000000000000       0x34 ./Peripheral/src/ch32v30x_sdio.o
 .debug_frame   0x0000000000000000      0x1f8 ./Peripheral/src/ch32v30x_sdio.o
 .text          0x0000000000000000        0x0 ./Peripheral/src/ch32v30x_spi.o
 .data          0x0000000000000000        0x0 ./Peripheral/src/ch32v30x_spi.o
 .bss           0x0000000000000000        0x0 ./Peripheral/src/ch32v30x_spi.o
 .text.SPI_I2S_DeInit
                0x0000000000000000       0x70 ./Peripheral/src/ch32v30x_spi.o
 .text.SPI_Init
                0x0000000000000000       0x5a ./Peripheral/src/ch32v30x_spi.o
 .text.I2S_Init
                0x0000000000000000       0xde ./Peripheral/src/ch32v30x_spi.o
 .text.SPI_StructInit
                0x0000000000000000       0x24 ./Peripheral/src/ch32v30x_spi.o
 .text.I2S_StructInit
                0x0000000000000000       0x12 ./Peripheral/src/ch32v30x_spi.o
 .text.SPI_Cmd  0x0000000000000000       0x1e ./Peripheral/src/ch32v30x_spi.o
 .text.I2S_Cmd  0x0000000000000000       0x1e ./Peripheral/src/ch32v30x_spi.o
 .text.SPI_I2S_ITConfig
                0x0000000000000000       0x22 ./Peripheral/src/ch32v30x_spi.o
 .text.SPI_I2S_DMACmd
                0x0000000000000000       0x16 ./Peripheral/src/ch32v30x_spi.o
 .text.SPI_I2S_SendData
                0x0000000000000000        0x6 ./Peripheral/src/ch32v30x_spi.o
 .text.SPI_I2S_ReceiveData
                0x0000000000000000        0x6 ./Peripheral/src/ch32v30x_spi.o
 .text.SPI_NSSInternalSoftwareConfig
                0x0000000000000000       0x2a ./Peripheral/src/ch32v30x_spi.o
 .text.SPI_SSOutputCmd
                0x0000000000000000       0x1c ./Peripheral/src/ch32v30x_spi.o
 .text.SPI_DataSizeConfig
                0x0000000000000000       0x1c ./Peripheral/src/ch32v30x_spi.o
 .text.SPI_TransmitCRC
                0x0000000000000000        0xe ./Peripheral/src/ch32v30x_spi.o
 .text.SPI_CalculateCRC
                0x0000000000000000       0x1c ./Peripheral/src/ch32v30x_spi.o
 .text.SPI_GetCRC
                0x0000000000000000       0x16 ./Peripheral/src/ch32v30x_spi.o
 .text.SPI_GetCRCPolynomial
                0x0000000000000000        0x6 ./Peripheral/src/ch32v30x_spi.o
 .text.SPI_BiDirectionalLineConfig
                0x0000000000000000       0x20 ./Peripheral/src/ch32v30x_spi.o
 .text.SPI_I2S_GetFlagStatus
                0x0000000000000000        0xc ./Peripheral/src/ch32v30x_spi.o
 .text.SPI_I2S_ClearFlag
                0x0000000000000000        0xe ./Peripheral/src/ch32v30x_spi.o
 .text.SPI_I2S_GetITStatus
                0x0000000000000000       0x2c ./Peripheral/src/ch32v30x_spi.o
 .text.SPI_I2S_ClearITPendingBit
                0x0000000000000000       0x16 ./Peripheral/src/ch32v30x_spi.o
 .debug_info    0x0000000000000000     0x12ae ./Peripheral/src/ch32v30x_spi.o
 .debug_abbrev  0x0000000000000000      0x325 ./Peripheral/src/ch32v30x_spi.o
 .debug_loc     0x0000000000000000      0x5e2 ./Peripheral/src/ch32v30x_spi.o
 .debug_aranges
                0x0000000000000000       0xd0 ./Peripheral/src/ch32v30x_spi.o
 .debug_ranges  0x0000000000000000       0xc0 ./Peripheral/src/ch32v30x_spi.o
 .debug_line    0x0000000000000000      0xd84 ./Peripheral/src/ch32v30x_spi.o
 .debug_str     0x0000000000000000      0xa80 ./Peripheral/src/ch32v30x_spi.o
 .comment       0x0000000000000000       0x34 ./Peripheral/src/ch32v30x_spi.o
 .debug_frame   0x0000000000000000      0x1b8 ./Peripheral/src/ch32v30x_spi.o
 .text          0x0000000000000000        0x0 ./Peripheral/src/ch32v30x_tim.o
 .data          0x0000000000000000        0x0 ./Peripheral/src/ch32v30x_tim.o
 .bss           0x0000000000000000        0x0 ./Peripheral/src/ch32v30x_tim.o
 .text.TI1_Config
                0x0000000000000000       0x8e ./Peripheral/src/ch32v30x_tim.o
 .text.TI2_Config
                0x0000000000000000       0xa4 ./Peripheral/src/ch32v30x_tim.o
 .text.TIM_DeInit
                0x0000000000000000      0x140 ./Peripheral/src/ch32v30x_tim.o
 .text.TIM_OC1Init
                0x0000000000000000       0xa0 ./Peripheral/src/ch32v30x_tim.o
 .text.TIM_OC3Init
                0x0000000000000000       0xca ./Peripheral/src/ch32v30x_tim.o
 .text.TIM_OC4Init
                0x0000000000000000       0x9e ./Peripheral/src/ch32v30x_tim.o
 .text.TIM_BDTRConfig
                0x0000000000000000       0x2e ./Peripheral/src/ch32v30x_tim.o
 .text.TIM_TimeBaseStructInit
                0x0000000000000000       0x18 ./Peripheral/src/ch32v30x_tim.o
 .text.TIM_OCStructInit
                0x0000000000000000       0x22 ./Peripheral/src/ch32v30x_tim.o
 .text.TIM_ICStructInit
                0x0000000000000000       0x18 ./Peripheral/src/ch32v30x_tim.o
 .text.TIM_BDTRStructInit
                0x0000000000000000       0x1e ./Peripheral/src/ch32v30x_tim.o
 .text.TIM_GenerateEvent
                0x0000000000000000        0x6 ./Peripheral/src/ch32v30x_tim.o
 .text.TIM_DMAConfig
                0x0000000000000000        0x8 ./Peripheral/src/ch32v30x_tim.o
 .text.TIM_DMACmd
                0x0000000000000000        0x8 ./Peripheral/src/ch32v30x_tim.o
 .text.TIM_InternalClockConfig
                0x0000000000000000       0x14 ./Peripheral/src/ch32v30x_tim.o
 .text.TIM_ITRxExternalClockConfig
                0x0000000000000000       0x20 ./Peripheral/src/ch32v30x_tim.o
 .text.TIM_TIxExternalClockConfig
                0x0000000000000000       0x52 ./Peripheral/src/ch32v30x_tim.o
 .text.TIM_ETRConfig
                0x0000000000000000       0x1a ./Peripheral/src/ch32v30x_tim.o
 .text.TIM_ETRClockMode1Config
                0x0000000000000000       0x2c ./Peripheral/src/ch32v30x_tim.o
 .text.TIM_ETRClockMode2Config
                0x0000000000000000       0x24 ./Peripheral/src/ch32v30x_tim.o
 .text.TIM_PrescalerConfig
                0x0000000000000000        0xa ./Peripheral/src/ch32v30x_tim.o
 .text.TIM_CounterModeConfig
                0x0000000000000000       0x14 ./Peripheral/src/ch32v30x_tim.o
 .text.TIM_SelectInputTrigger
                0x0000000000000000       0x14 ./Peripheral/src/ch32v30x_tim.o
 .text.TIM_EncoderInterfaceConfig
                0x0000000000000000       0x46 ./Peripheral/src/ch32v30x_tim.o
 .text.TIM_ForcedOC1Config
                0x0000000000000000       0x14 ./Peripheral/src/ch32v30x_tim.o
 .text.TIM_ForcedOC2Config
                0x0000000000000000       0x18 ./Peripheral/src/ch32v30x_tim.o
 .text.TIM_ForcedOC3Config
                0x0000000000000000       0x14 ./Peripheral/src/ch32v30x_tim.o
 .text.TIM_ForcedOC4Config
                0x0000000000000000       0x18 ./Peripheral/src/ch32v30x_tim.o
 .text.TIM_SelectCOM
                0x0000000000000000       0x1c ./Peripheral/src/ch32v30x_tim.o
 .text.TIM_SelectCCDMA
                0x0000000000000000       0x1c ./Peripheral/src/ch32v30x_tim.o
 .text.TIM_CCPreloadControl
                0x0000000000000000       0x1c ./Peripheral/src/ch32v30x_tim.o
 .text.TIM_OC1PreloadConfig
                0x0000000000000000       0x12 ./Peripheral/src/ch32v30x_tim.o
 .text.TIM_OC3PreloadConfig
                0x0000000000000000       0x12 ./Peripheral/src/ch32v30x_tim.o
 .text.TIM_OC4PreloadConfig
                0x0000000000000000       0x1a ./Peripheral/src/ch32v30x_tim.o
 .text.TIM_OC1FastConfig
                0x0000000000000000       0x12 ./Peripheral/src/ch32v30x_tim.o
 .text.TIM_OC2FastConfig
                0x0000000000000000       0x1a ./Peripheral/src/ch32v30x_tim.o
 .text.TIM_OC3FastConfig
                0x0000000000000000       0x12 ./Peripheral/src/ch32v30x_tim.o
 .text.TIM_OC4FastConfig
                0x0000000000000000       0x1a ./Peripheral/src/ch32v30x_tim.o
 .text.TIM_ClearOC1Ref
                0x0000000000000000       0x14 ./Peripheral/src/ch32v30x_tim.o
 .text.TIM_ClearOC2Ref
                0x0000000000000000       0x16 ./Peripheral/src/ch32v30x_tim.o
 .text.TIM_ClearOC3Ref
                0x0000000000000000       0x14 ./Peripheral/src/ch32v30x_tim.o
 .text.TIM_ClearOC4Ref
                0x0000000000000000       0x16 ./Peripheral/src/ch32v30x_tim.o
 .text.TIM_OC1PolarityConfig
                0x0000000000000000       0x12 ./Peripheral/src/ch32v30x_tim.o
 .text.TIM_OC1NPolarityConfig
                0x0000000000000000       0x12 ./Peripheral/src/ch32v30x_tim.o
 .text.TIM_OC2PolarityConfig
                0x0000000000000000       0x1a ./Peripheral/src/ch32v30x_tim.o
 .text.TIM_OC2NPolarityConfig
                0x0000000000000000       0x1a ./Peripheral/src/ch32v30x_tim.o
 .text.TIM_OC3PolarityConfig
                0x0000000000000000       0x1a ./Peripheral/src/ch32v30x_tim.o
 .text.TIM_OC3NPolarityConfig
                0x0000000000000000       0x1a ./Peripheral/src/ch32v30x_tim.o
 .text.TIM_OC4PolarityConfig
                0x0000000000000000       0x18 ./Peripheral/src/ch32v30x_tim.o
 .text.TIM_CCxCmd
                0x0000000000000000       0x28 ./Peripheral/src/ch32v30x_tim.o
 .text.TIM_CCxNCmd
                0x0000000000000000       0x28 ./Peripheral/src/ch32v30x_tim.o
 .text.TIM_SelectOCxM
                0x0000000000000000       0x50 ./Peripheral/src/ch32v30x_tim.o
 .text.TIM_UpdateDisableConfig
                0x0000000000000000       0x1c ./Peripheral/src/ch32v30x_tim.o
 .text.TIM_UpdateRequestConfig
                0x0000000000000000       0x1c ./Peripheral/src/ch32v30x_tim.o
 .text.TIM_SelectHallSensor
                0x0000000000000000       0x1e ./Peripheral/src/ch32v30x_tim.o
 .text.TIM_SelectOnePulseMode
                0x0000000000000000       0x1e ./Peripheral/src/ch32v30x_tim.o
 .text.TIM_SelectOutputTrigger
                0x0000000000000000       0x20 ./Peripheral/src/ch32v30x_tim.o
 .text.TIM_SelectSlaveMode
                0x0000000000000000       0x1e ./Peripheral/src/ch32v30x_tim.o
 .text.TIM_SelectMasterSlaveMode
                0x0000000000000000       0x20 ./Peripheral/src/ch32v30x_tim.o
 .text.TIM_SetCounter
                0x0000000000000000        0x6 ./Peripheral/src/ch32v30x_tim.o
 .text.TIM_SetAutoreload
                0x0000000000000000        0x6 ./Peripheral/src/ch32v30x_tim.o
 .text.TIM_SetCompare1
                0x0000000000000000        0x6 ./Peripheral/src/ch32v30x_tim.o
 .text.TIM_SetCompare3
                0x0000000000000000        0x6 ./Peripheral/src/ch32v30x_tim.o
 .text.TIM_SetCompare4
                0x0000000000000000        0x6 ./Peripheral/src/ch32v30x_tim.o
 .text.TIM_SetIC1Prescaler
                0x0000000000000000       0x1e ./Peripheral/src/ch32v30x_tim.o
 .text.TIM_SetIC2Prescaler
                0x0000000000000000       0x22 ./Peripheral/src/ch32v30x_tim.o
 .text.TIM_PWMIConfig
                0x0000000000000000       0xb8 ./Peripheral/src/ch32v30x_tim.o
 .text.TIM_SetIC3Prescaler
                0x0000000000000000       0x1e ./Peripheral/src/ch32v30x_tim.o
 .text.TIM_SetIC4Prescaler
                0x0000000000000000       0x22 ./Peripheral/src/ch32v30x_tim.o
 .text.TIM_ICInit
                0x0000000000000000      0x1f2 ./Peripheral/src/ch32v30x_tim.o
 .text.TIM_SetClockDivision
                0x0000000000000000       0x20 ./Peripheral/src/ch32v30x_tim.o
 .text.TIM_GetCapture1
                0x0000000000000000        0x6 ./Peripheral/src/ch32v30x_tim.o
 .text.TIM_GetCapture2
                0x0000000000000000        0x6 ./Peripheral/src/ch32v30x_tim.o
 .text.TIM_GetCapture3
                0x0000000000000000        0x6 ./Peripheral/src/ch32v30x_tim.o
 .text.TIM_GetCapture4
                0x0000000000000000        0x6 ./Peripheral/src/ch32v30x_tim.o
 .text.TIM_GetCounter
                0x0000000000000000        0x6 ./Peripheral/src/ch32v30x_tim.o
 .text.TIM_GetPrescaler
                0x0000000000000000        0x6 ./Peripheral/src/ch32v30x_tim.o
 .text.TIM_GetFlagStatus
                0x0000000000000000        0xc ./Peripheral/src/ch32v30x_tim.o
 .text.TIM_ClearFlag
                0x0000000000000000        0xe ./Peripheral/src/ch32v30x_tim.o
 .text.TIM_GetITStatus
                0x0000000000000000       0x1c ./Peripheral/src/ch32v30x_tim.o
 .text          0x0000000000000000        0x0 ./Peripheral/src/ch32v30x_usart.o
 .data          0x0000000000000000        0x0 ./Peripheral/src/ch32v30x_usart.o
 .bss           0x0000000000000000        0x0 ./Peripheral/src/ch32v30x_usart.o
 .text.USART_DeInit
                0x0000000000000000       0xb8 ./Peripheral/src/ch32v30x_usart.o
 .text.USART_StructInit
                0x0000000000000000       0x18 ./Peripheral/src/ch32v30x_usart.o
 .text.USART_ClockInit
                0x0000000000000000       0x2a ./Peripheral/src/ch32v30x_usart.o
 .text.USART_ClockStructInit
                0x0000000000000000       0x12 ./Peripheral/src/ch32v30x_usart.o
 .text.USART_ITConfig
                0x0000000000000000       0x36 ./Peripheral/src/ch32v30x_usart.o
 .text.USART_DMACmd
                0x0000000000000000       0x16 ./Peripheral/src/ch32v30x_usart.o
 .text.USART_SetAddress
                0x0000000000000000       0x1e ./Peripheral/src/ch32v30x_usart.o
 .text.USART_WakeUpConfig
                0x0000000000000000       0x1c ./Peripheral/src/ch32v30x_usart.o
 .text.USART_ReceiverWakeUpCmd
                0x0000000000000000       0x1c ./Peripheral/src/ch32v30x_usart.o
 .text.USART_LINBreakDetectLengthConfig
                0x0000000000000000       0x20 ./Peripheral/src/ch32v30x_usart.o
 .text.USART_LINCmd
                0x0000000000000000       0x1c ./Peripheral/src/ch32v30x_usart.o
 .text.USART_ReceiveData
                0x0000000000000000        0xa ./Peripheral/src/ch32v30x_usart.o
 .text.USART_SendBreak
                0x0000000000000000        0xe ./Peripheral/src/ch32v30x_usart.o
 .text.USART_SetGuardTime
                0x0000000000000000       0x1a ./Peripheral/src/ch32v30x_usart.o
 .text.USART_SetPrescaler
                0x0000000000000000       0x20 ./Peripheral/src/ch32v30x_usart.o
 .text.USART_SmartCardCmd
                0x0000000000000000       0x1e ./Peripheral/src/ch32v30x_usart.o
 .text.USART_SmartCardNACKCmd
                0x0000000000000000       0x1c ./Peripheral/src/ch32v30x_usart.o
 .text.USART_HalfDuplexCmd
                0x0000000000000000       0x1c ./Peripheral/src/ch32v30x_usart.o
 .text.USART_OverSampling8Cmd
                0x0000000000000000       0x16 ./Peripheral/src/ch32v30x_usart.o
 .text.USART_OneBitMethodCmd
                0x0000000000000000       0x22 ./Peripheral/src/ch32v30x_usart.o
 .text.USART_IrDAConfig
                0x0000000000000000       0x1e ./Peripheral/src/ch32v30x_usart.o
 .text.USART_IrDACmd
                0x0000000000000000       0x1c ./Peripheral/src/ch32v30x_usart.o
 .text.USART_ClearFlag
                0x0000000000000000        0xe ./Peripheral/src/ch32v30x_usart.o
 .text.USART_GetITStatus
                0x0000000000000000       0x44 ./Peripheral/src/ch32v30x_usart.o
 .text.USART_ClearITPendingBit
                0x0000000000000000       0x16 ./Peripheral/src/ch32v30x_usart.o
 .text          0x0000000000000000        0x0 ./Peripheral/src/ch32v30x_wwdg.o
 .data          0x0000000000000000        0x0 ./Peripheral/src/ch32v30x_wwdg.o
 .bss           0x0000000000000000        0x0 ./Peripheral/src/ch32v30x_wwdg.o
 .text.WWDG_DeInit
                0x0000000000000000       0x2a ./Peripheral/src/ch32v30x_wwdg.o
 .text.WWDG_SetPrescaler
                0x0000000000000000       0x14 ./Peripheral/src/ch32v30x_wwdg.o
 .text.WWDG_SetWindowValue
                0x0000000000000000       0x26 ./Peripheral/src/ch32v30x_wwdg.o
 .text.WWDG_EnableIT
                0x0000000000000000       0x12 ./Peripheral/src/ch32v30x_wwdg.o
 .text.WWDG_SetCounter
                0x0000000000000000        0xe ./Peripheral/src/ch32v30x_wwdg.o
 .text.WWDG_Enable
                0x0000000000000000        0xe ./Peripheral/src/ch32v30x_wwdg.o
 .text.WWDG_GetFlagStatus
                0x0000000000000000        0xa ./Peripheral/src/ch32v30x_wwdg.o
 .text.WWDG_ClearFlag
                0x0000000000000000        0xa ./Peripheral/src/ch32v30x_wwdg.o
 .debug_info    0x0000000000000000      0xb28 ./Peripheral/src/ch32v30x_wwdg.o
 .debug_abbrev  0x0000000000000000      0x2a0 ./Peripheral/src/ch32v30x_wwdg.o
 .debug_loc     0x0000000000000000       0xae ./Peripheral/src/ch32v30x_wwdg.o
 .debug_aranges
                0x0000000000000000       0x58 ./Peripheral/src/ch32v30x_wwdg.o
 .debug_ranges  0x0000000000000000       0x48 ./Peripheral/src/ch32v30x_wwdg.o
 .debug_line    0x0000000000000000      0x4b7 ./Peripheral/src/ch32v30x_wwdg.o
 .debug_str     0x0000000000000000      0x6b2 ./Peripheral/src/ch32v30x_wwdg.o
 .comment       0x0000000000000000       0x34 ./Peripheral/src/ch32v30x_wwdg.o
 .debug_frame   0x0000000000000000       0xa8 ./Peripheral/src/ch32v30x_wwdg.o
 .text          0x0000000000000000        0x0 ./Debug/debug.o
 .data          0x0000000000000000        0x0 ./Debug/debug.o
 .bss           0x0000000000000000        0x0 ./Debug/debug.o
 .text.Delay_Us
                0x0000000000000000       0x30 ./Debug/debug.o
 .text          0x0000000000000000        0x0 ./Core/core_riscv.o
 .data          0x0000000000000000        0x0 ./Core/core_riscv.o
 .bss           0x0000000000000000        0x0 ./Core/core_riscv.o
 .text.__get_FFLAGS
                0x0000000000000000        0x6 ./Core/core_riscv.o
 .text.__set_FFLAGS
                0x0000000000000000        0x6 ./Core/core_riscv.o
 .text.__get_FRM
                0x0000000000000000        0x6 ./Core/core_riscv.o
 .text.__set_FRM
                0x0000000000000000        0x6 ./Core/core_riscv.o
 .text.__get_FCSR
                0x0000000000000000        0x6 ./Core/core_riscv.o
 .text.__set_FCSR
                0x0000000000000000        0x6 ./Core/core_riscv.o
 .text.__get_MSTATUS
                0x0000000000000000        0x6 ./Core/core_riscv.o
 .text.__set_MSTATUS
                0x0000000000000000        0x6 ./Core/core_riscv.o
 .text.__get_MISA
                0x0000000000000000        0x6 ./Core/core_riscv.o
 .text.__set_MISA
                0x0000000000000000        0x6 ./Core/core_riscv.o
 .text.__get_MIE
                0x0000000000000000        0x6 ./Core/core_riscv.o
 .text.__set_MIE
                0x0000000000000000        0x6 ./Core/core_riscv.o
 .text.__get_MTVEC
                0x0000000000000000        0x6 ./Core/core_riscv.o
 .text.__set_MTVEC
                0x0000000000000000        0x6 ./Core/core_riscv.o
 .text.__get_MSCRATCH
                0x0000000000000000        0x6 ./Core/core_riscv.o
 .text.__set_MSCRATCH
                0x0000000000000000        0x6 ./Core/core_riscv.o
 .text.__set_MEPC
                0x0000000000000000        0x6 ./Core/core_riscv.o
 .text.__set_MCAUSE
                0x0000000000000000        0x6 ./Core/core_riscv.o
 .text.__set_MTVAL
                0x0000000000000000        0x6 ./Core/core_riscv.o
 .text.__get_MIP
                0x0000000000000000        0x6 ./Core/core_riscv.o
 .text.__set_MIP
                0x0000000000000000        0x6 ./Core/core_riscv.o
 .text.__get_MCYCLE
                0x0000000000000000        0x6 ./Core/core_riscv.o
 .text.__set_MCYCLE
                0x0000000000000000        0x6 ./Core/core_riscv.o
 .text.__get_MCYCLEH
                0x0000000000000000        0x6 ./Core/core_riscv.o
 .text.__set_MCYCLEH
                0x0000000000000000        0x6 ./Core/core_riscv.o
 .text.__get_MINSTRET
                0x0000000000000000        0x6 ./Core/core_riscv.o
 .text.__set_MINSTRET
                0x0000000000000000        0x6 ./Core/core_riscv.o
 .text.__get_MINSTRETH
                0x0000000000000000        0x6 ./Core/core_riscv.o
 .text.__set_MINSTRETH
                0x0000000000000000        0x6 ./Core/core_riscv.o
 .text.__get_MVENDORID
                0x0000000000000000        0x6 ./Core/core_riscv.o
 .text.__get_MARCHID
                0x0000000000000000        0x6 ./Core/core_riscv.o
 .text.__get_MIMPID
                0x0000000000000000        0x6 ./Core/core_riscv.o
 .text.__get_MHARTID
                0x0000000000000000        0x6 ./Core/core_riscv.o
 .text          0x0000000000000000        0x0 D:\opench-ch32v307\firmware\TcpClient\NetLib\libwchnet.a(eth_driver.o)
 .data          0x0000000000000000        0x0 D:\opench-ch32v307\firmware\TcpClient\NetLib\libwchnet.a(eth_driver.o)
 .bss           0x0000000000000000        0x0 D:\opench-ch32v307\firmware\TcpClient\NetLib\libwchnet.a(eth_driver.o)
 .text.PHY_control_pin_init
                0x0000000000000000       0x82 D:\opench-ch32v307\firmware\TcpClient\NetLib\libwchnet.a(eth_driver.o)
 .text.GETH_pin_init
                0x0000000000000000      0x188 D:\opench-ch32v307\firmware\TcpClient\NetLib\libwchnet.a(eth_driver.o)
 .text.FETH_pin_init
                0x0000000000000000      0x1b2 D:\opench-ch32v307\firmware\TcpClient\NetLib\libwchnet.a(eth_driver.o)
 .text          0x0000000000000000        0x0 D:\opench-ch32v307\firmware\TcpClient\NetLib\libwchnet.a(socket.o)
 .data          0x0000000000000000        0x0 D:\opench-ch32v307\firmware\TcpClient\NetLib\libwchnet.a(socket.o)
 .bss           0x0000000000000000        0x0 D:\opench-ch32v307\firmware\TcpClient\NetLib\libwchnet.a(socket.o)
 .text.WCHTCPServerAccept
                0x0000000000000000       0xc8 D:\opench-ch32v307\firmware\TcpClient\NetLib\libwchnet.a(socket.o)
 .text.WCHNET_ConfigKeepLive
                0x0000000000000000       0x16 D:\opench-ch32v307\firmware\TcpClient\NetLib\libwchnet.a(socket.o)
 .text.WCHNET_OpenMac
                0x0000000000000000       0x28 D:\opench-ch32v307\firmware\TcpClient\NetLib\libwchnet.a(socket.o)
 .text.CH563IPClose
                0x0000000000000000       0x20 D:\opench-ch32v307\firmware\TcpClient\NetLib\libwchnet.a(socket.o)
 .text.WCHNET_GetVer
                0x0000000000000000        0x4 D:\opench-ch32v307\firmware\TcpClient\NetLib\libwchnet.a(socket.o)
 .text.WCHNET_ModifyRecvBuf
                0x0000000000000000       0x50 D:\opench-ch32v307\firmware\TcpClient\NetLib\libwchnet.a(socket.o)
 .text.tcp_recved_CH563
                0x0000000000000000       0x1a D:\opench-ch32v307\firmware\TcpClient\NetLib\libwchnet.a(socket.o)
 .text.WCHNET_SocketUdpSendTo
                0x0000000000000000      0x110 D:\opench-ch32v307\firmware\TcpClient\NetLib\libwchnet.a(socket.o)
 .text.WCHNET_RetrySendUnack
                0x0000000000000000       0x3e D:\opench-ch32v307\firmware\TcpClient\NetLib\libwchnet.a(socket.o)
 .text.WCHNET_QueryUnack
                0x0000000000000000       0x94 D:\opench-ch32v307\firmware\TcpClient\NetLib\libwchnet.a(socket.o)
 .text.WCHNET_PrtSocketTCPStat
                0x0000000000000000        0x2 D:\opench-ch32v307\firmware\TcpClient\NetLib\libwchnet.a(socket.o)
 .text.WCHNET_SocketSetKeepLive
                0x0000000000000000       0x3a D:\opench-ch32v307\firmware\TcpClient\NetLib\libwchnet.a(socket.o)
 .text.WCHNET_SocketListen
                0x0000000000000000       0x82 D:\opench-ch32v307\firmware\TcpClient\NetLib\libwchnet.a(socket.o)
 .text.WCHSocketTcpDiscon
                0x0000000000000000       0x42 D:\opench-ch32v307\firmware\TcpClient\NetLib\libwchnet.a(socket.o)
 .text.CloseUpdConnect
                0x0000000000000000       0x44 D:\opench-ch32v307\firmware\TcpClient\NetLib\libwchnet.a(socket.o)
 .text.CloseIPRAWConnect
                0x0000000000000000       0x44 D:\opench-ch32v307\firmware\TcpClient\NetLib\libwchnet.a(socket.o)
 .text.CloseTcpPCB
                0x0000000000000000       0x94 D:\opench-ch32v307\firmware\TcpClient\NetLib\libwchnet.a(socket.o)
 .text.WCHNET_SocketClose
                0x0000000000000000       0x78 D:\opench-ch32v307\firmware\TcpClient\NetLib\libwchnet.a(socket.o)
 .text.WCHNET_Aton
                0x0000000000000000       0x1c D:\opench-ch32v307\firmware\TcpClient\NetLib\libwchnet.a(socket.o)
 .text.WCHNET_Ntoa
                0x0000000000000000       0x2c D:\opench-ch32v307\firmware\TcpClient\NetLib\libwchnet.a(socket.o)
 .text.WCHNET_SetSocketTTL
                0x0000000000000000       0x40 D:\opench-ch32v307\firmware\TcpClient\NetLib\libwchnet.a(socket.o)
 .text          0x0000000000000000        0x0 D:\opench-ch32v307\firmware\TcpClient\NetLib\libwchnet.a(etharp.o)
 .data          0x0000000000000000        0x0 D:\opench-ch32v307\firmware\TcpClient\NetLib\libwchnet.a(etharp.o)
 .bss           0x0000000000000000        0x0 D:\opench-ch32v307\firmware\TcpClient\NetLib\libwchnet.a(etharp.o)
 .text.etharp_find_addr
                0x0000000000000000       0x50 D:\opench-ch32v307\firmware\TcpClient\NetLib\libwchnet.a(etharp.o)
 .text.GET_MAC  0x0000000000000000       0x68 D:\opench-ch32v307\firmware\TcpClient\NetLib\libwchnet.a(etharp.o)
 .text          0x0000000000000000        0x0 D:\opench-ch32v307\firmware\TcpClient\NetLib\libwchnet.a(ethernetif.o)
 .data          0x0000000000000000        0x0 D:\opench-ch32v307\firmware\TcpClient\NetLib\libwchnet.a(ethernetif.o)
 .bss           0x0000000000000000        0x0 D:\opench-ch32v307\firmware\TcpClient\NetLib\libwchnet.a(ethernetif.o)
 .text.QuaryEthRxDma
                0x0000000000000000       0x5c D:\opench-ch32v307\firmware\TcpClient\NetLib\libwchnet.a(ethernetif.o)
 .text.MACRxSuccHandle
                0x0000000000000000       0x1e D:\opench-ch32v307\firmware\TcpClient\NetLib\libwchnet.a(ethernetif.o)
 .text.WCHNET_SetHostname
                0x0000000000000000       0x22 D:\opench-ch32v307\firmware\TcpClient\NetLib\libwchnet.a(ethernetif.o)
 .text          0x0000000000000000        0x0 D:\opench-ch32v307\firmware\TcpClient\NetLib\libwchnet.a(inet.o)
 .data          0x0000000000000000        0x0 D:\opench-ch32v307\firmware\TcpClient\NetLib\libwchnet.a(inet.o)
 .bss           0x0000000000000000        0x0 D:\opench-ch32v307\firmware\TcpClient\NetLib\libwchnet.a(inet.o)
 .text.inet_ntoa
                0x0000000000000000       0x8c D:\opench-ch32v307\firmware\TcpClient\NetLib\libwchnet.a(inet.o)
 .text.inet_aton
                0x0000000000000000      0x160 D:\opench-ch32v307\firmware\TcpClient\NetLib\libwchnet.a(inet.o)
 .text.inet_addr
                0x0000000000000000       0x26 D:\opench-ch32v307\firmware\TcpClient\NetLib\libwchnet.a(inet.o)
 .bss.str.5720  0x0000000000000000       0x10 D:\opench-ch32v307\firmware\TcpClient\NetLib\libwchnet.a(inet.o)
 .text          0x0000000000000000        0x0 D:\opench-ch32v307\firmware\TcpClient\NetLib\libwchnet.a(ip.o)
 .data          0x0000000000000000        0x0 D:\opench-ch32v307\firmware\TcpClient\NetLib\libwchnet.a(ip.o)
 .bss           0x0000000000000000        0x0 D:\opench-ch32v307\firmware\TcpClient\NetLib\libwchnet.a(ip.o)
 .text          0x0000000000000000        0x0 D:\opench-ch32v307\firmware\TcpClient\NetLib\libwchnet.a(ip_addr.o)
 .data          0x0000000000000000        0x0 D:\opench-ch32v307\firmware\TcpClient\NetLib\libwchnet.a(ip_addr.o)
 .bss           0x0000000000000000        0x0 D:\opench-ch32v307\firmware\TcpClient\NetLib\libwchnet.a(ip_addr.o)
 .text          0x0000000000000000        0x0 D:\opench-ch32v307\firmware\TcpClient\NetLib\libwchnet.a(ip_frag.o)
 .data          0x0000000000000000        0x0 D:\opench-ch32v307\firmware\TcpClient\NetLib\libwchnet.a(ip_frag.o)
 .bss           0x0000000000000000        0x0 D:\opench-ch32v307\firmware\TcpClient\NetLib\libwchnet.a(ip_frag.o)
 .text          0x0000000000000000        0x0 D:\opench-ch32v307\firmware\TcpClient\NetLib\libwchnet.a(init.o)
 .data          0x0000000000000000        0x0 D:\opench-ch32v307\firmware\TcpClient\NetLib\libwchnet.a(init.o)
 .bss           0x0000000000000000        0x0 D:\opench-ch32v307\firmware\TcpClient\NetLib\libwchnet.a(init.o)
 .text          0x0000000000000000        0x0 D:\opench-ch32v307\firmware\TcpClient\NetLib\libwchnet.a(mem.o)
 .data          0x0000000000000000        0x0 D:\opench-ch32v307\firmware\TcpClient\NetLib\libwchnet.a(mem.o)
 .bss           0x0000000000000000        0x0 D:\opench-ch32v307\firmware\TcpClient\NetLib\libwchnet.a(mem.o)
 .text.mem2_init
                0x0000000000000000       0x52 D:\opench-ch32v307\firmware\TcpClient\NetLib\libwchnet.a(mem.o)
 .text.mem_calloc
                0x0000000000000000       0x3a D:\opench-ch32v307\firmware\TcpClient\NetLib\libwchnet.a(mem.o)
 .text          0x0000000000000000        0x0 D:\opench-ch32v307\firmware\TcpClient\NetLib\libwchnet.a(memp.o)
 .data          0x0000000000000000        0x0 D:\opench-ch32v307\firmware\TcpClient\NetLib\libwchnet.a(memp.o)
 .bss           0x0000000000000000        0x0 D:\opench-ch32v307\firmware\TcpClient\NetLib\libwchnet.a(memp.o)
 .text          0x0000000000000000        0x0 D:\opench-ch32v307\firmware\TcpClient\NetLib\libwchnet.a(netif.o)
 .data          0x0000000000000000        0x0 D:\opench-ch32v307\firmware\TcpClient\NetLib\libwchnet.a(netif.o)
 .bss           0x0000000000000000        0x0 D:\opench-ch32v307\firmware\TcpClient\NetLib\libwchnet.a(netif.o)
 .text.netif_remove
                0x0000000000000000       0x3a D:\opench-ch32v307\firmware\TcpClient\NetLib\libwchnet.a(netif.o)
 .text.netif_find
                0x0000000000000000       0x40 D:\opench-ch32v307\firmware\TcpClient\NetLib\libwchnet.a(netif.o)
 .text.netif_set_gw
                0x0000000000000000       0x1c D:\opench-ch32v307\firmware\TcpClient\NetLib\libwchnet.a(netif.o)
 .text.netif_set_netmask
                0x0000000000000000       0x1c D:\opench-ch32v307\firmware\TcpClient\NetLib\libwchnet.a(netif.o)
 .text.netif_set_up
                0x0000000000000000       0x36 D:\opench-ch32v307\firmware\TcpClient\NetLib\libwchnet.a(netif.o)
 .text.netif_set_down
                0x0000000000000000       0x12 D:\opench-ch32v307\firmware\TcpClient\NetLib\libwchnet.a(netif.o)
 .text          0x0000000000000000        0x0 D:\opench-ch32v307\firmware\TcpClient\NetLib\libwchnet.a(pbuf.o)
 .data          0x0000000000000000        0x0 D:\opench-ch32v307\firmware\TcpClient\NetLib\libwchnet.a(pbuf.o)
 .bss           0x0000000000000000        0x0 D:\opench-ch32v307\firmware\TcpClient\NetLib\libwchnet.a(pbuf.o)
 .text.pbuf_dechain
                0x0000000000000000       0x32 D:\opench-ch32v307\firmware\TcpClient\NetLib\libwchnet.a(pbuf.o)
 .text.pbuf_copy_partial
                0x0000000000000000       0x76 D:\opench-ch32v307\firmware\TcpClient\NetLib\libwchnet.a(pbuf.o)
 .text.pbuf_take
                0x0000000000000000       0x60 D:\opench-ch32v307\firmware\TcpClient\NetLib\libwchnet.a(pbuf.o)
 .text.pbuf_coalesce
                0x0000000000000000       0x42 D:\opench-ch32v307\firmware\TcpClient\NetLib\libwchnet.a(pbuf.o)
 .text          0x0000000000000000        0x0 D:\opench-ch32v307\firmware\TcpClient\NetLib\libwchnet.a(raw.o)
 .data          0x0000000000000000        0x0 D:\opench-ch32v307\firmware\TcpClient\NetLib\libwchnet.a(raw.o)
 .bss           0x0000000000000000        0x0 D:\opench-ch32v307\firmware\TcpClient\NetLib\libwchnet.a(raw.o)
 .text.raw_remove
                0x0000000000000000       0x40 D:\opench-ch32v307\firmware\TcpClient\NetLib\libwchnet.a(raw.o)
 .text          0x0000000000000000        0x0 D:\opench-ch32v307\firmware\TcpClient\NetLib\libwchnet.a(tcp.o)
 .data          0x0000000000000000        0x0 D:\opench-ch32v307\firmware\TcpClient\NetLib\libwchnet.a(tcp.o)
 .bss           0x0000000000000000        0x0 D:\opench-ch32v307\firmware\TcpClient\NetLib\libwchnet.a(tcp.o)
 .text.tcp_accept_null
                0x0000000000000000        0x4 D:\opench-ch32v307\firmware\TcpClient\NetLib\libwchnet.a(tcp.o)
 .text.tcp_listen_with_backlog
                0x0000000000000000       0xb6 D:\opench-ch32v307\firmware\TcpClient\NetLib\libwchnet.a(tcp.o)
 .text.tcp_setprio
                0x0000000000000000        0x4 D:\opench-ch32v307\firmware\TcpClient\NetLib\libwchnet.a(tcp.o)
 .text.tcp_accept
                0x0000000000000000        0x4 D:\opench-ch32v307\firmware\TcpClient\NetLib\libwchnet.a(tcp.o)
 .text.tcp_debug_state_str
                0x0000000000000000       0x10 D:\opench-ch32v307\firmware\TcpClient\NetLib\libwchnet.a(tcp.o)
 .data.tcp_state_str
                0x0000000000000000       0x2c D:\opench-ch32v307\firmware\TcpClient\NetLib\libwchnet.a(tcp.o)
 .rodata.str1.4
                0x0000000000000000       0x76 D:\opench-ch32v307\firmware\TcpClient\NetLib\libwchnet.a(tcp.o)
 .text          0x0000000000000000        0x0 D:\opench-ch32v307\firmware\TcpClient\NetLib\libwchnet.a(tcp_in.o)
 .data          0x0000000000000000        0x0 D:\opench-ch32v307\firmware\TcpClient\NetLib\libwchnet.a(tcp_in.o)
 .bss           0x0000000000000000        0x0 D:\opench-ch32v307\firmware\TcpClient\NetLib\libwchnet.a(tcp_in.o)
 .text          0x0000000000000000        0x0 D:\opench-ch32v307\firmware\TcpClient\NetLib\libwchnet.a(tcp_out.o)
 .data          0x0000000000000000        0x0 D:\opench-ch32v307\firmware\TcpClient\NetLib\libwchnet.a(tcp_out.o)
 .bss           0x0000000000000000        0x0 D:\opench-ch32v307\firmware\TcpClient\NetLib\libwchnet.a(tcp_out.o)
 .text          0x0000000000000000        0x0 D:\opench-ch32v307\firmware\TcpClient\NetLib\libwchnet.a(udp.o)
 .data          0x0000000000000000        0x0 D:\opench-ch32v307\firmware\TcpClient\NetLib\libwchnet.a(udp.o)
 .bss           0x0000000000000000        0x0 D:\opench-ch32v307\firmware\TcpClient\NetLib\libwchnet.a(udp.o)
 .text.udp_disconnect
                0x0000000000000000       0x2e D:\opench-ch32v307\firmware\TcpClient\NetLib\libwchnet.a(udp.o)
 .text.udp_remove
                0x0000000000000000       0x40 D:\opench-ch32v307\firmware\TcpClient\NetLib\libwchnet.a(udp.o)
 .text          0x0000000000000000        0x0 D:\opench-ch32v307\firmware\TcpClient\NetLib\libwchnet.a(ipcheck.o)
 .data          0x0000000000000000        0x0 D:\opench-ch32v307\firmware\TcpClient\NetLib\libwchnet.a(ipcheck.o)
 .bss           0x0000000000000000        0x0 D:\opench-ch32v307\firmware\TcpClient\NetLib\libwchnet.a(ipcheck.o)
 .text          0x0000000000000000        0x0 D:\opench-ch32v307\firmware\TcpClient\NetLib\libwchnet.a(wchnet_dhcp.o)
 .data          0x0000000000000000        0x0 D:\opench-ch32v307\firmware\TcpClient\NetLib\libwchnet.a(wchnet_dhcp.o)
 .bss           0x0000000000000000        0x0 D:\opench-ch32v307\firmware\TcpClient\NetLib\libwchnet.a(wchnet_dhcp.o)
 .text.dhcp_option_short
                0x0000000000000000       0x24 D:\opench-ch32v307\firmware\TcpClient\NetLib\libwchnet.a(wchnet_dhcp.o)
 .text.dhcp_get_option_ptr
                0x0000000000000000       0xb6 D:\opench-ch32v307\firmware\TcpClient\NetLib\libwchnet.a(wchnet_dhcp.o)
 .text.dhcp_get_option_long
                0x0000000000000000       0x18 D:\opench-ch32v307\firmware\TcpClient\NetLib\libwchnet.a(wchnet_dhcp.o)
 .text.dhcp_rebind
                0x0000000000000000      0x116 D:\opench-ch32v307\firmware\TcpClient\NetLib\libwchnet.a(wchnet_dhcp.o)
 .text.dhcp_discover
                0x0000000000000000      0x14a D:\opench-ch32v307\firmware\TcpClient\NetLib\libwchnet.a(wchnet_dhcp.o)
 .text.dhcp_select
                0x0000000000000000      0x1b0 D:\opench-ch32v307\firmware\TcpClient\NetLib\libwchnet.a(wchnet_dhcp.o)
 .text.dhcp_reboot
                0x0000000000000000      0x104 D:\opench-ch32v307\firmware\TcpClient\NetLib\libwchnet.a(wchnet_dhcp.o)
 .text.dhcp_check
                0x0000000000000000       0x3a D:\opench-ch32v307\firmware\TcpClient\NetLib\libwchnet.a(wchnet_dhcp.o)
 .text.dhcp_free_reply
                0x0000000000000000       0x36 D:\opench-ch32v307\firmware\TcpClient\NetLib\libwchnet.a(wchnet_dhcp.o)
 .text.dhcp_inform
                0x0000000000000000       0xfa D:\opench-ch32v307\firmware\TcpClient\NetLib\libwchnet.a(wchnet_dhcp.o)
 .text.dhcp_network_changed
                0x0000000000000000       0x5c D:\opench-ch32v307\firmware\TcpClient\NetLib\libwchnet.a(wchnet_dhcp.o)
 .text.dhcp_renew
                0x0000000000000000      0x112 D:\opench-ch32v307\firmware\TcpClient\NetLib\libwchnet.a(wchnet_dhcp.o)
 .text.dhcp_coarse_tmr
                0x0000000000000000       0x70 D:\opench-ch32v307\firmware\TcpClient\NetLib\libwchnet.a(wchnet_dhcp.o)
 .text.dhcp_release
                0x0000000000000000      0x118 D:\opench-ch32v307\firmware\TcpClient\NetLib\libwchnet.a(wchnet_dhcp.o)
 .text.dhcp_stop
                0x0000000000000000       0x3e D:\opench-ch32v307\firmware\TcpClient\NetLib\libwchnet.a(wchnet_dhcp.o)
 .text.dhcp_start
                0x0000000000000000       0xde D:\opench-ch32v307\firmware\TcpClient\NetLib\libwchnet.a(wchnet_dhcp.o)
 .text.WCHNET_DHCPStart
                0x0000000000000000       0x6e D:\opench-ch32v307\firmware\TcpClient\NetLib\libwchnet.a(wchnet_dhcp.o)
 .text.WCHNET_DHCPStop
                0x0000000000000000       0x36 D:\opench-ch32v307\firmware\TcpClient\NetLib\libwchnet.a(wchnet_dhcp.o)
 .text.WCHNET_DHCPHandle
                0x0000000000000000       0x86 D:\opench-ch32v307\firmware\TcpClient\NetLib\libwchnet.a(wchnet_dhcp.o)
 .text.dhcp_bind
                0x0000000000000000      0x1a0 D:\opench-ch32v307\firmware\TcpClient\NetLib\libwchnet.a(wchnet_dhcp.o)
 .text.dhcp_recv
                0x0000000000000000      0x38c D:\opench-ch32v307\firmware\TcpClient\NetLib\libwchnet.a(wchnet_dhcp.o)
 .text.dhcp_fine_tmr
                0x0000000000000000       0xea D:\opench-ch32v307\firmware\TcpClient\NetLib\libwchnet.a(wchnet_dhcp.o)
 .sbss.DHCPFlag
                0x0000000000000000        0x1 D:\opench-ch32v307\firmware\TcpClient\NetLib\libwchnet.a(wchnet_dhcp.o)
 .text          0x0000000000000000        0x0 D:\opench-ch32v307\firmware\TcpClient\NetLib\libwchnet.a(wchnet_dns.o)
 .data          0x0000000000000000        0x0 D:\opench-ch32v307\firmware\TcpClient\NetLib\libwchnet.a(wchnet_dns.o)
 .bss           0x0000000000000000        0x0 D:\opench-ch32v307\firmware\TcpClient\NetLib\libwchnet.a(wchnet_dns.o)
 .text.dns_parse_name
                0x0000000000000000       0x20 D:\opench-ch32v307\firmware\TcpClient\NetLib\libwchnet.a(wchnet_dns.o)
 .text.dns_recv
                0x0000000000000000      0x226 D:\opench-ch32v307\firmware\TcpClient\NetLib\libwchnet.a(wchnet_dns.o)
 .text.dns_send
                0x0000000000000000      0x126 D:\opench-ch32v307\firmware\TcpClient\NetLib\libwchnet.a(wchnet_dns.o)
 .text.dns_check_entry
                0x0000000000000000       0xd6 D:\opench-ch32v307\firmware\TcpClient\NetLib\libwchnet.a(wchnet_dns.o)
 .text.dns_tmr  0x0000000000000000       0x44 D:\opench-ch32v307\firmware\TcpClient\NetLib\libwchnet.a(wchnet_dns.o)
 .text.dns_setserver
                0x0000000000000000       0x50 D:\opench-ch32v307\firmware\TcpClient\NetLib\libwchnet.a(wchnet_dns.o)
 .text.dns_init
                0x0000000000000000       0x70 D:\opench-ch32v307\firmware\TcpClient\NetLib\libwchnet.a(wchnet_dns.o)
 .text.dns_getserver
                0x0000000000000000       0x56 D:\opench-ch32v307\firmware\TcpClient\NetLib\libwchnet.a(wchnet_dns.o)
 .text.dns_gethostbyname
                0x0000000000000000      0x16e D:\opench-ch32v307\firmware\TcpClient\NetLib\libwchnet.a(wchnet_dns.o)
 .text.WCHNET_InitDNS
                0x0000000000000000       0x4c D:\opench-ch32v307\firmware\TcpClient\NetLib\libwchnet.a(wchnet_dns.o)
 .text.WCHNET_GetHostName
                0x0000000000000000       0x20 D:\opench-ch32v307\firmware\TcpClient\NetLib\libwchnet.a(wchnet_dns.o)
 .bss.dns_table
                0x0000000000000000      0x260 D:\opench-ch32v307\firmware\TcpClient\NetLib\libwchnet.a(wchnet_dns.o)
 .rodata.dns_init.str1.4
                0x0000000000000000        0xf D:\opench-ch32v307\firmware\TcpClient\NetLib\libwchnet.a(wchnet_dns.o)
 .sbss.dns_pcb  0x0000000000000000        0x4 D:\opench-ch32v307\firmware\TcpClient\NetLib\libwchnet.a(wchnet_dns.o)
 .sbss.dns_seqno
                0x0000000000000000        0x1 D:\opench-ch32v307\firmware\TcpClient\NetLib\libwchnet.a(wchnet_dns.o)
 .sbss.dns_servers
                0x0000000000000000        0x8 D:\opench-ch32v307\firmware\TcpClient\NetLib\libwchnet.a(wchnet_dns.o)
 .text          0x0000000000000000        0x0 D:\opench-ch32v307\firmware\TcpClient\NetLib\libwchnet.a(icmp.o)
 .data          0x0000000000000000        0x0 D:\opench-ch32v307\firmware\TcpClient\NetLib\libwchnet.a(icmp.o)
 .bss           0x0000000000000000        0x0 D:\opench-ch32v307\firmware\TcpClient\NetLib\libwchnet.a(icmp.o)
 .text          0x0000000000000000        0x0 D:\opench-ch32v307\firmware\TcpClient\NetLib\libwchnet.a(inet_chksum.o)
 .data          0x0000000000000000        0x0 D:\opench-ch32v307\firmware\TcpClient\NetLib\libwchnet.a(inet_chksum.o)
 .bss           0x0000000000000000        0x0 D:\opench-ch32v307\firmware\TcpClient\NetLib\libwchnet.a(inet_chksum.o)
 .text          0x0000000000000000        0x0 d:/mounriver/mounriver_studio/toolchain/risc-v embedded gcc/bin/../lib/gcc/riscv-none-embed/8.2.0/../../../../riscv-none-embed/lib/rv32imac/ilp32\libprintf.a(wchprintf.o)
 .data          0x0000000000000000        0x0 d:/mounriver/mounriver_studio/toolchain/risc-v embedded gcc/bin/../lib/gcc/riscv-none-embed/8.2.0/../../../../riscv-none-embed/lib/rv32imac/ilp32\libprintf.a(wchprintf.o)
 .bss           0x0000000000000000        0x0 d:/mounriver/mounriver_studio/toolchain/risc-v embedded gcc/bin/../lib/gcc/riscv-none-embed/8.2.0/../../../../riscv-none-embed/lib/rv32imac/ilp32\libprintf.a(wchprintf.o)
 .text.sprintf  0x0000000000000000       0x2c d:/mounriver/mounriver_studio/toolchain/risc-v embedded gcc/bin/../lib/gcc/riscv-none-embed/8.2.0/../../../../riscv-none-embed/lib/rv32imac/ilp32\libprintf.a(wchprintf.o)
 .text.snprintf
                0x0000000000000000       0x2e d:/mounriver/mounriver_studio/toolchain/risc-v embedded gcc/bin/../lib/gcc/riscv-none-embed/8.2.0/../../../../riscv-none-embed/lib/rv32imac/ilp32\libprintf.a(wchprintf.o)
 .text.putchar  0x0000000000000000       0x1c d:/mounriver/mounriver_studio/toolchain/risc-v embedded gcc/bin/../lib/gcc/riscv-none-embed/8.2.0/../../../../riscv-none-embed/lib/rv32imac/ilp32\libprintf.a(wchprintf.o)
 .data          0x0000000000000000        0x0 d:/mounriver/mounriver_studio/toolchain/risc-v embedded gcc/bin/../lib/gcc/riscv-none-embed/8.2.0/rv32imac/ilp32\libgcc.a(save-restore.o)
 .bss           0x0000000000000000        0x0 d:/mounriver/mounriver_studio/toolchain/risc-v embedded gcc/bin/../lib/gcc/riscv-none-embed/8.2.0/rv32imac/ilp32\libgcc.a(save-restore.o)
 .eh_frame      0x0000000000000000       0xf8 d:/mounriver/mounriver_studio/toolchain/risc-v embedded gcc/bin/../lib/gcc/riscv-none-embed/8.2.0/rv32imac/ilp32\libgcc.a(save-restore.o)
 .text          0x0000000000000000        0x0 d:/mounriver/mounriver_studio/toolchain/risc-v embedded gcc/bin/../lib/gcc/riscv-none-embed/8.2.0/../../../../riscv-none-embed/lib/rv32imac/ilp32\libg_nano.a(lib_a-memcpy.o)
 .data          0x0000000000000000        0x0 d:/mounriver/mounriver_studio/toolchain/risc-v embedded gcc/bin/../lib/gcc/riscv-none-embed/8.2.0/../../../../riscv-none-embed/lib/rv32imac/ilp32\libg_nano.a(lib_a-memcpy.o)
 .bss           0x0000000000000000        0x0 d:/mounriver/mounriver_studio/toolchain/risc-v embedded gcc/bin/../lib/gcc/riscv-none-embed/8.2.0/../../../../riscv-none-embed/lib/rv32imac/ilp32\libg_nano.a(lib_a-memcpy.o)
 .data          0x0000000000000000        0x0 d:/mounriver/mounriver_studio/toolchain/risc-v embedded gcc/bin/../lib/gcc/riscv-none-embed/8.2.0/../../../../riscv-none-embed/lib/rv32imac/ilp32\libg_nano.a(lib_a-memset.o)
 .bss           0x0000000000000000        0x0 d:/mounriver/mounriver_studio/toolchain/risc-v embedded gcc/bin/../lib/gcc/riscv-none-embed/8.2.0/../../../../riscv-none-embed/lib/rv32imac/ilp32\libg_nano.a(lib_a-memset.o)
 .text          0x0000000000000000      0x11e d:/mounriver/mounriver_studio/toolchain/risc-v embedded gcc/bin/../lib/gcc/riscv-none-embed/8.2.0/../../../../riscv-none-embed/lib/rv32imac/ilp32\libg_nano.a(lib_a-strcmp.o)
 .data          0x0000000000000000        0x0 d:/mounriver/mounriver_studio/toolchain/risc-v embedded gcc/bin/../lib/gcc/riscv-none-embed/8.2.0/../../../../riscv-none-embed/lib/rv32imac/ilp32\libg_nano.a(lib_a-strcmp.o)
 .bss           0x0000000000000000        0x0 d:/mounriver/mounriver_studio/toolchain/risc-v embedded gcc/bin/../lib/gcc/riscv-none-embed/8.2.0/../../../../riscv-none-embed/lib/rv32imac/ilp32\libg_nano.a(lib_a-strcmp.o)
 .text          0x0000000000000000        0x0 d:/mounriver/mounriver_studio/toolchain/risc-v embedded gcc/bin/../lib/gcc/riscv-none-embed/8.2.0/../../../../riscv-none-embed/lib/rv32imac/ilp32\libg_nano.a(lib_a-strcpy.o)
 .data          0x0000000000000000        0x0 d:/mounriver/mounriver_studio/toolchain/risc-v embedded gcc/bin/../lib/gcc/riscv-none-embed/8.2.0/../../../../riscv-none-embed/lib/rv32imac/ilp32\libg_nano.a(lib_a-strcpy.o)
 .bss           0x0000000000000000        0x0 d:/mounriver/mounriver_studio/toolchain/risc-v embedded gcc/bin/../lib/gcc/riscv-none-embed/8.2.0/../../../../riscv-none-embed/lib/rv32imac/ilp32\libg_nano.a(lib_a-strcpy.o)
 .text.strcpy   0x0000000000000000       0x12 d:/mounriver/mounriver_studio/toolchain/risc-v embedded gcc/bin/../lib/gcc/riscv-none-embed/8.2.0/../../../../riscv-none-embed/lib/rv32imac/ilp32\libg_nano.a(lib_a-strcpy.o)
 .debug_frame   0x0000000000000000       0x20 d:/mounriver/mounriver_studio/toolchain/risc-v embedded gcc/bin/../lib/gcc/riscv-none-embed/8.2.0/../../../../riscv-none-embed/lib/rv32imac/ilp32\libg_nano.a(lib_a-strcpy.o)
 .text          0x0000000000000000        0x0 d:/mounriver/mounriver_studio/toolchain/risc-v embedded gcc/bin/../lib/gcc/riscv-none-embed/8.2.0/../../../../riscv-none-embed/lib/rv32imac/ilp32\libg_nano.a(lib_a-strlen.o)
 .data          0x0000000000000000        0x0 d:/mounriver/mounriver_studio/toolchain/risc-v embedded gcc/bin/../lib/gcc/riscv-none-embed/8.2.0/../../../../riscv-none-embed/lib/rv32imac/ilp32\libg_nano.a(lib_a-strlen.o)
 .bss           0x0000000000000000        0x0 d:/mounriver/mounriver_studio/toolchain/risc-v embedded gcc/bin/../lib/gcc/riscv-none-embed/8.2.0/../../../../riscv-none-embed/lib/rv32imac/ilp32\libg_nano.a(lib_a-strlen.o)
 .text          0x0000000000000000        0x0 d:/mounriver/mounriver_studio/toolchain/risc-v embedded gcc/bin/../lib/gcc/riscv-none-embed/8.2.0/../../../../riscv-none-embed/lib/rv32imac/ilp32\libg_nano.a(lib_a-strncmp.o)
 .data          0x0000000000000000        0x0 d:/mounriver/mounriver_studio/toolchain/risc-v embedded gcc/bin/../lib/gcc/riscv-none-embed/8.2.0/../../../../riscv-none-embed/lib/rv32imac/ilp32\libg_nano.a(lib_a-strncmp.o)
 .bss           0x0000000000000000        0x0 d:/mounriver/mounriver_studio/toolchain/risc-v embedded gcc/bin/../lib/gcc/riscv-none-embed/8.2.0/../../../../riscv-none-embed/lib/rv32imac/ilp32\libg_nano.a(lib_a-strncmp.o)
 .text          0x0000000000000000        0x0 d:/mounriver/mounriver_studio/toolchain/risc-v embedded gcc/bin/../lib/gcc/riscv-none-embed/8.2.0/../../../../riscv-none-embed/lib/rv32imac/ilp32\libg_nano.a(lib_a-vsnprintf.o)
 .data          0x0000000000000000        0x0 d:/mounriver/mounriver_studio/toolchain/risc-v embedded gcc/bin/../lib/gcc/riscv-none-embed/8.2.0/../../../../riscv-none-embed/lib/rv32imac/ilp32\libg_nano.a(lib_a-vsnprintf.o)
 .bss           0x0000000000000000        0x0 d:/mounriver/mounriver_studio/toolchain/risc-v embedded gcc/bin/../lib/gcc/riscv-none-embed/8.2.0/../../../../riscv-none-embed/lib/rv32imac/ilp32\libg_nano.a(lib_a-vsnprintf.o)
 .text          0x0000000000000000        0x0 d:/mounriver/mounriver_studio/toolchain/risc-v embedded gcc/bin/../lib/gcc/riscv-none-embed/8.2.0/../../../../riscv-none-embed/lib/rv32imac/ilp32\libg_nano.a(lib_a-impure.o)
 .data          0x0000000000000000        0x0 d:/mounriver/mounriver_studio/toolchain/risc-v embedded gcc/bin/../lib/gcc/riscv-none-embed/8.2.0/../../../../riscv-none-embed/lib/rv32imac/ilp32\libg_nano.a(lib_a-impure.o)
 .bss           0x0000000000000000        0x0 d:/mounriver/mounriver_studio/toolchain/risc-v embedded gcc/bin/../lib/gcc/riscv-none-embed/8.2.0/../../../../riscv-none-embed/lib/rv32imac/ilp32\libg_nano.a(lib_a-impure.o)
 .sdata2._global_impure_ptr
                0x0000000000000000        0x4 d:/mounriver/mounriver_studio/toolchain/risc-v embedded gcc/bin/../lib/gcc/riscv-none-embed/8.2.0/../../../../riscv-none-embed/lib/rv32imac/ilp32\libg_nano.a(lib_a-impure.o)
 .text          0x0000000000000000        0x0 d:/mounriver/mounriver_studio/toolchain/risc-v embedded gcc/bin/../lib/gcc/riscv-none-embed/8.2.0/../../../../riscv-none-embed/lib/rv32imac/ilp32\libg_nano.a(lib_a-nano-svfprintf.o)
 .data          0x0000000000000000        0x0 d:/mounriver/mounriver_studio/toolchain/risc-v embedded gcc/bin/../lib/gcc/riscv-none-embed/8.2.0/../../../../riscv-none-embed/lib/rv32imac/ilp32\libg_nano.a(lib_a-nano-svfprintf.o)
 .bss           0x0000000000000000        0x0 d:/mounriver/mounriver_studio/toolchain/risc-v embedded gcc/bin/../lib/gcc/riscv-none-embed/8.2.0/../../../../riscv-none-embed/lib/rv32imac/ilp32\libg_nano.a(lib_a-nano-svfprintf.o)
 .text.__ssprint_r
                0x0000000000000000      0x148 d:/mounriver/mounriver_studio/toolchain/risc-v embedded gcc/bin/../lib/gcc/riscv-none-embed/8.2.0/../../../../riscv-none-embed/lib/rv32imac/ilp32\libg_nano.a(lib_a-nano-svfprintf.o)
 .text          0x0000000000000000        0x0 d:/mounriver/mounriver_studio/toolchain/risc-v embedded gcc/bin/../lib/gcc/riscv-none-embed/8.2.0/../../../../riscv-none-embed/lib/rv32imac/ilp32\libg_nano.a(lib_a-nano-vfprintf_i.o)
 .data          0x0000000000000000        0x0 d:/mounriver/mounriver_studio/toolchain/risc-v embedded gcc/bin/../lib/gcc/riscv-none-embed/8.2.0/../../../../riscv-none-embed/lib/rv32imac/ilp32\libg_nano.a(lib_a-nano-vfprintf_i.o)
 .bss           0x0000000000000000        0x0 d:/mounriver/mounriver_studio/toolchain/risc-v embedded gcc/bin/../lib/gcc/riscv-none-embed/8.2.0/../../../../riscv-none-embed/lib/rv32imac/ilp32\libg_nano.a(lib_a-nano-vfprintf_i.o)
 .text          0x0000000000000000        0x0 d:/mounriver/mounriver_studio/toolchain/risc-v embedded gcc/bin/../lib/gcc/riscv-none-embed/8.2.0/../../../../riscv-none-embed/lib/rv32imac/ilp32\libg_nano.a(lib_a-memchr.o)
 .data          0x0000000000000000        0x0 d:/mounriver/mounriver_studio/toolchain/risc-v embedded gcc/bin/../lib/gcc/riscv-none-embed/8.2.0/../../../../riscv-none-embed/lib/rv32imac/ilp32\libg_nano.a(lib_a-memchr.o)
 .bss           0x0000000000000000        0x0 d:/mounriver/mounriver_studio/toolchain/risc-v embedded gcc/bin/../lib/gcc/riscv-none-embed/8.2.0/../../../../riscv-none-embed/lib/rv32imac/ilp32\libg_nano.a(lib_a-memchr.o)
 .text          0x0000000000000000        0x0 d:/mounriver/mounriver_studio/toolchain/risc-v embedded gcc/bin/../lib/gcc/riscv-none-embed/8.2.0/../../../../riscv-none-embed/lib/rv32imac/ilp32\libg_nano.a(lib_a-memmove.o)
 .data          0x0000000000000000        0x0 d:/mounriver/mounriver_studio/toolchain/risc-v embedded gcc/bin/../lib/gcc/riscv-none-embed/8.2.0/../../../../riscv-none-embed/lib/rv32imac/ilp32\libg_nano.a(lib_a-memmove.o)
 .bss           0x0000000000000000        0x0 d:/mounriver/mounriver_studio/toolchain/risc-v embedded gcc/bin/../lib/gcc/riscv-none-embed/8.2.0/../../../../riscv-none-embed/lib/rv32imac/ilp32\libg_nano.a(lib_a-memmove.o)
 .text          0x0000000000000000        0x0 d:/mounriver/mounriver_studio/toolchain/risc-v embedded gcc/bin/../lib/gcc/riscv-none-embed/8.2.0/../../../../riscv-none-embed/lib/rv32imac/ilp32\libg_nano.a(lib_a-nano-freer.o)
 .data          0x0000000000000000        0x0 d:/mounriver/mounriver_studio/toolchain/risc-v embedded gcc/bin/../lib/gcc/riscv-none-embed/8.2.0/../../../../riscv-none-embed/lib/rv32imac/ilp32\libg_nano.a(lib_a-nano-freer.o)
 .bss           0x0000000000000000        0x0 d:/mounriver/mounriver_studio/toolchain/risc-v embedded gcc/bin/../lib/gcc/riscv-none-embed/8.2.0/../../../../riscv-none-embed/lib/rv32imac/ilp32\libg_nano.a(lib_a-nano-freer.o)
 .text          0x0000000000000000        0x0 d:/mounriver/mounriver_studio/toolchain/risc-v embedded gcc/bin/../lib/gcc/riscv-none-embed/8.2.0/../../../../riscv-none-embed/lib/rv32imac/ilp32\libg_nano.a(lib_a-nano-mallocr.o)
 .data          0x0000000000000000        0x0 d:/mounriver/mounriver_studio/toolchain/risc-v embedded gcc/bin/../lib/gcc/riscv-none-embed/8.2.0/../../../../riscv-none-embed/lib/rv32imac/ilp32\libg_nano.a(lib_a-nano-mallocr.o)
 .bss           0x0000000000000000        0x0 d:/mounriver/mounriver_studio/toolchain/risc-v embedded gcc/bin/../lib/gcc/riscv-none-embed/8.2.0/../../../../riscv-none-embed/lib/rv32imac/ilp32\libg_nano.a(lib_a-nano-mallocr.o)
 .text          0x0000000000000000        0x0 d:/mounriver/mounriver_studio/toolchain/risc-v embedded gcc/bin/../lib/gcc/riscv-none-embed/8.2.0/../../../../riscv-none-embed/lib/rv32imac/ilp32\libg_nano.a(lib_a-nano-reallocr.o)
 .data          0x0000000000000000        0x0 d:/mounriver/mounriver_studio/toolchain/risc-v embedded gcc/bin/../lib/gcc/riscv-none-embed/8.2.0/../../../../riscv-none-embed/lib/rv32imac/ilp32\libg_nano.a(lib_a-nano-reallocr.o)
 .bss           0x0000000000000000        0x0 d:/mounriver/mounriver_studio/toolchain/risc-v embedded gcc/bin/../lib/gcc/riscv-none-embed/8.2.0/../../../../riscv-none-embed/lib/rv32imac/ilp32\libg_nano.a(lib_a-nano-reallocr.o)
 .text          0x0000000000000000        0x0 d:/mounriver/mounriver_studio/toolchain/risc-v embedded gcc/bin/../lib/gcc/riscv-none-embed/8.2.0/../../../../riscv-none-embed/lib/rv32imac/ilp32\libg_nano.a(lib_a-sbrkr.o)
 .data          0x0000000000000000        0x0 d:/mounriver/mounriver_studio/toolchain/risc-v embedded gcc/bin/../lib/gcc/riscv-none-embed/8.2.0/../../../../riscv-none-embed/lib/rv32imac/ilp32\libg_nano.a(lib_a-sbrkr.o)
 .bss           0x0000000000000000        0x0 d:/mounriver/mounriver_studio/toolchain/risc-v embedded gcc/bin/../lib/gcc/riscv-none-embed/8.2.0/../../../../riscv-none-embed/lib/rv32imac/ilp32\libg_nano.a(lib_a-sbrkr.o)
 .text          0x0000000000000000        0x0 d:/mounriver/mounriver_studio/toolchain/risc-v embedded gcc/bin/../lib/gcc/riscv-none-embed/8.2.0/../../../../riscv-none-embed/lib/rv32imac/ilp32\libg_nano.a(lib_a-mlock.o)
 .data          0x0000000000000000        0x0 d:/mounriver/mounriver_studio/toolchain/risc-v embedded gcc/bin/../lib/gcc/riscv-none-embed/8.2.0/../../../../riscv-none-embed/lib/rv32imac/ilp32\libg_nano.a(lib_a-mlock.o)
 .bss           0x0000000000000000        0x0 d:/mounriver/mounriver_studio/toolchain/risc-v embedded gcc/bin/../lib/gcc/riscv-none-embed/8.2.0/../../../../riscv-none-embed/lib/rv32imac/ilp32\libg_nano.a(lib_a-mlock.o)
 .text          0x0000000000000000        0x0 d:/mounriver/mounriver_studio/toolchain/risc-v embedded gcc/bin/../lib/gcc/riscv-none-embed/8.2.0/../../../../riscv-none-embed/lib/rv32imac/ilp32\libg_nano.a(lib_a-nano-msizer.o)
 .data          0x0000000000000000        0x0 d:/mounriver/mounriver_studio/toolchain/risc-v embedded gcc/bin/../lib/gcc/riscv-none-embed/8.2.0/../../../../riscv-none-embed/lib/rv32imac/ilp32\libg_nano.a(lib_a-nano-msizer.o)
 .bss           0x0000000000000000        0x0 d:/mounriver/mounriver_studio/toolchain/risc-v embedded gcc/bin/../lib/gcc/riscv-none-embed/8.2.0/../../../../riscv-none-embed/lib/rv32imac/ilp32\libg_nano.a(lib_a-nano-msizer.o)
 .text          0x0000000000000000        0x0 d:/mounriver/mounriver_studio/toolchain/risc-v embedded gcc/bin/../lib/gcc/riscv-none-embed/8.2.0/../../../../riscv-none-embed/lib/rv32imac/ilp32\libg_nano.a(lib_a-reent.o)
 .data          0x0000000000000000        0x0 d:/mounriver/mounriver_studio/toolchain/risc-v embedded gcc/bin/../lib/gcc/riscv-none-embed/8.2.0/../../../../riscv-none-embed/lib/rv32imac/ilp32\libg_nano.a(lib_a-reent.o)
 .bss           0x0000000000000000        0x0 d:/mounriver/mounriver_studio/toolchain/risc-v embedded gcc/bin/../lib/gcc/riscv-none-embed/8.2.0/../../../../riscv-none-embed/lib/rv32imac/ilp32\libg_nano.a(lib_a-reent.o)
 .text.cleanup_glue
                0x0000000000000000       0x2c d:/mounriver/mounriver_studio/toolchain/risc-v embedded gcc/bin/../lib/gcc/riscv-none-embed/8.2.0/../../../../riscv-none-embed/lib/rv32imac/ilp32\libg_nano.a(lib_a-reent.o)
 .text._reclaim_reent
                0x0000000000000000      0x10c d:/mounriver/mounriver_studio/toolchain/risc-v embedded gcc/bin/../lib/gcc/riscv-none-embed/8.2.0/../../../../riscv-none-embed/lib/rv32imac/ilp32\libg_nano.a(lib_a-reent.o)
 .text          0x0000000000000000        0x0 d:/mounriver/mounriver_studio/toolchain/risc-v embedded gcc/bin/../lib/gcc/riscv-none-embed/8.2.0/../../../../riscv-none-embed/lib/rv32imac/ilp32\libnosys.a(sbrk.o)
 .data          0x0000000000000000        0x0 d:/mounriver/mounriver_studio/toolchain/risc-v embedded gcc/bin/../lib/gcc/riscv-none-embed/8.2.0/../../../../riscv-none-embed/lib/rv32imac/ilp32\libnosys.a(sbrk.o)
 .bss           0x0000000000000000        0x0 d:/mounriver/mounriver_studio/toolchain/risc-v embedded gcc/bin/../lib/gcc/riscv-none-embed/8.2.0/../../../../riscv-none-embed/lib/rv32imac/ilp32\libnosys.a(sbrk.o)

Memory Configuration

Name             Origin             Length             Attributes
FLASH            0x0000000000000000 0x0000000000030000 xr
RAM              0x0000000020000000 0x0000000000020000 xrw
*default*        0x0000000000000000 0xffffffffffffffff

Linker script and memory map

LOAD ./User/IIC.o
LOAD ./User/ch32v30x_it.o
LOAD ./User/es8388.o
LOAD ./User/lcd.o
LOAD ./User/main.o
LOAD ./User/system_ch32v30x.o
LOAD ./Startup/startup_ch32v30x.o
LOAD ./Peripheral/src/ch32v30x_adc.o
LOAD ./Peripheral/src/ch32v30x_bkp.o
LOAD ./Peripheral/src/ch32v30x_can.o
LOAD ./Peripheral/src/ch32v30x_crc.o
LOAD ./Peripheral/src/ch32v30x_dac.o
LOAD ./Peripheral/src/ch32v30x_dbgmcu.o
LOAD ./Peripheral/src/ch32v30x_dma.o
LOAD ./Peripheral/src/ch32v30x_dvp.o
LOAD ./Peripheral/src/ch32v30x_eth.o
LOAD ./Peripheral/src/ch32v30x_exti.o
LOAD ./Peripheral/src/ch32v30x_flash.o
LOAD ./Peripheral/src/ch32v30x_fsmc.o
LOAD ./Peripheral/src/ch32v30x_gpio.o
LOAD ./Peripheral/src/ch32v30x_i2c.o
LOAD ./Peripheral/src/ch32v30x_iwdg.o
LOAD ./Peripheral/src/ch32v30x_misc.o
LOAD ./Peripheral/src/ch32v30x_opa.o
LOAD ./Peripheral/src/ch32v30x_pwr.o
LOAD ./Peripheral/src/ch32v30x_rcc.o
LOAD ./Peripheral/src/ch32v30x_rng.o
LOAD ./Peripheral/src/ch32v30x_rtc.o
LOAD ./Peripheral/src/ch32v30x_sdio.o
LOAD ./Peripheral/src/ch32v30x_spi.o
LOAD ./Peripheral/src/ch32v30x_tim.o
LOAD ./Peripheral/src/ch32v30x_usart.o
LOAD ./Peripheral/src/ch32v30x_wwdg.o
LOAD ./Debug/debug.o
LOAD ./Core/core_riscv.o
LOAD D:\opench-ch32v307\firmware\TcpClient\NetLib\libwchnet.a
LOAD d:/mounriver/mounriver_studio/toolchain/risc-v embedded gcc/bin/../lib/gcc/riscv-none-embed/8.2.0/../../../../riscv-none-embed/lib/rv32imac/ilp32\libprintf.a
LOAD d:/mounriver/mounriver_studio/toolchain/risc-v embedded gcc/bin/../lib/gcc/riscv-none-embed/8.2.0/rv32imac/ilp32\libgcc.a
LOAD d:/mounriver/mounriver_studio/toolchain/risc-v embedded gcc/bin/../lib/gcc/riscv-none-embed/8.2.0/../../../../riscv-none-embed/lib/rv32imac/ilp32\libg_nano.a
LOAD d:/mounriver/mounriver_studio/toolchain/risc-v embedded gcc/bin/../lib/gcc/riscv-none-embed/8.2.0/../../../../riscv-none-embed/lib/rv32imac/ilp32\libc_nano.a
LOAD d:/mounriver/mounriver_studio/toolchain/risc-v embedded gcc/bin/../lib/gcc/riscv-none-embed/8.2.0/rv32imac/ilp32\libgcc.a
START GROUP
LOAD d:/mounriver/mounriver_studio/toolchain/risc-v embedded gcc/bin/../lib/gcc/riscv-none-embed/8.2.0/rv32imac/ilp32\libgcc.a
LOAD d:/mounriver/mounriver_studio/toolchain/risc-v embedded gcc/bin/../lib/gcc/riscv-none-embed/8.2.0/../../../../riscv-none-embed/lib/rv32imac/ilp32\libc_nano.a
LOAD d:/mounriver/mounriver_studio/toolchain/risc-v embedded gcc/bin/../lib/gcc/riscv-none-embed/8.2.0/../../../../riscv-none-embed/lib/rv32imac/ilp32\libnosys.a
END GROUP
START GROUP
LOAD d:/mounriver/mounriver_studio/toolchain/risc-v embedded gcc/bin/../lib/gcc/riscv-none-embed/8.2.0/rv32imac/ilp32\libgcc.a
LOAD d:/mounriver/mounriver_studio/toolchain/risc-v embedded gcc/bin/../lib/gcc/riscv-none-embed/8.2.0/../../../../riscv-none-embed/lib/rv32imac/ilp32\libc_nano.a
LOAD d:/mounriver/mounriver_studio/toolchain/risc-v embedded gcc/bin/../lib/gcc/riscv-none-embed/8.2.0/../../../../riscv-none-embed/lib/rv32imac/ilp32\libnosys.a
END GROUP
                0x0000000000000800                __stack_size = 0x800
                [!provide]                        PROVIDE (_stack_size = __stack_size)

.init           0x0000000000000000       0x38
                0x0000000000000000                _sinit = .
                0x0000000000000000                . = ALIGN (0x4)
 *(SORT_NONE(.init))
 .init          0x0000000000000000       0x38 ./Startup/startup_ch32v30x.o
                0x0000000000000000                _start
                0x0000000000000038                . = ALIGN (0x4)
                0x0000000000000038                _einit = .

.vector         0x0000000000000038      0x1c8
 *(.vector)
 .vector        0x0000000000000038      0x1a0 ./Startup/startup_ch32v30x.o
                0x0000000000000200                . = ALIGN (0x40)
 *fill*         0x00000000000001d8       0x28 

.text           0x0000000000000200    0x16ea0
                0x0000000000000200                . = ALIGN (0x4)
 *(.text)
 .text          0x0000000000000200       0x60 d:/mounriver/mounriver_studio/toolchain/risc-v embedded gcc/bin/../lib/gcc/riscv-none-embed/8.2.0/rv32imac/ilp32\libgcc.a(save-restore.o)
                0x0000000000000200                __riscv_save_12
                0x0000000000000208                __riscv_save_9
                0x0000000000000208                __riscv_save_11
                0x0000000000000208                __riscv_save_10
                0x0000000000000208                __riscv_save_8
                0x0000000000000216                __riscv_save_4
                0x0000000000000216                __riscv_save_6
                0x0000000000000216                __riscv_save_5
                0x0000000000000216                __riscv_save_7
                0x0000000000000230                __riscv_save_3
                0x0000000000000230                __riscv_save_2
                0x0000000000000230                __riscv_save_1
                0x0000000000000230                __riscv_save_0
                0x000000000000023c                __riscv_restore_12
                0x0000000000000240                __riscv_restore_11
                0x0000000000000240                __riscv_restore_9
                0x0000000000000240                __riscv_restore_10
                0x0000000000000240                __riscv_restore_8
                0x000000000000024a                __riscv_restore_5
                0x000000000000024a                __riscv_restore_7
                0x000000000000024a                __riscv_restore_6
                0x000000000000024a                __riscv_restore_4
                0x0000000000000254                __riscv_restore_3
                0x0000000000000254                __riscv_restore_0
                0x0000000000000254                __riscv_restore_2
                0x0000000000000254                __riscv_restore_1
 .text          0x0000000000000260       0xa8 d:/mounriver/mounriver_studio/toolchain/risc-v embedded gcc/bin/../lib/gcc/riscv-none-embed/8.2.0/../../../../riscv-none-embed/lib/rv32imac/ilp32\libg_nano.a(lib_a-memset.o)
                0x0000000000000260                memset
 *(.text.*)
 .text.IIC_Init
                0x0000000000000308       0xa6 ./User/IIC.o
                0x0000000000000308                IIC_Init
 .text.NMI_Handler
                0x00000000000003ae        0x4 ./User/ch32v30x_it.o
                0x00000000000003ae                NMI_Handler
 .text.HardFault_Handler
                0x00000000000003b2       0x44 ./User/ch32v30x_it.o
                0x00000000000003b2                HardFault_Handler
 .text.ETH_IRQHandler
                0x00000000000003f6        0x8 ./User/ch32v30x_it.o
                0x00000000000003f6                ETH_IRQHandler
 .text.TIM2_IRQHandler
                0x00000000000003fe       0x14 ./User/ch32v30x_it.o
                0x00000000000003fe                TIM2_IRQHandler
 .text.ES8388_Contrl_Init
                0x0000000000000412       0x30 ./User/es8388.o
                0x0000000000000412                ES8388_Contrl_Init
 .text.ES8388_Write_Reg
                0x0000000000000442       0xee ./User/es8388.o
                0x0000000000000442                ES8388_Write_Reg
 .text.ES8388_Init
                0x0000000000000530       0xc8 ./User/es8388.o
                0x0000000000000530                ES8388_Init
 .text.lcd_write_half_word
                0x00000000000005f8       0x16 ./User/lcd.o
                0x00000000000005f8                lcd_write_half_word
 .text.lcd_read_data
                0x000000000000060e       0x1a ./User/lcd.o
                0x000000000000060e                lcd_read_data
 .text.lcd_fsmc_init
                0x0000000000000628      0x10e ./User/lcd.o
                0x0000000000000628                lcd_fsmc_init
 .text.TIM1_PWMOut_Init
                0x0000000000000736       0x76 ./User/lcd.o
                0x0000000000000736                TIM1_PWMOut_Init
 .text.lcd_gpio_init
                0x00000000000007ac       0x48 ./User/lcd.o
                0x00000000000007ac                lcd_gpio_init
 .text.LCD_SetBrightness
                0x00000000000007f4       0x1c ./User/lcd.o
                0x00000000000007f4                LCD_SetBrightness
 .text.lcd_set_color
                0x0000000000000810        0xe ./User/lcd.o
                0x0000000000000810                lcd_set_color
 .text.lcd_address_set
                0x000000000000081e       0x5e ./User/lcd.o
                0x000000000000081e                lcd_address_set
 .text.lcd_clear
                0x000000000000087c       0x4c ./User/lcd.o
                0x000000000000087c                lcd_clear
 .text.lcd_init
                0x00000000000008c8      0x1dc ./User/lcd.o
                0x00000000000008c8                lcd_init
 .text.lcd_fill
                0x0000000000000aa4       0x4c ./User/lcd.o
                0x0000000000000aa4                lcd_fill
 .text.lcd_show_char
                0x0000000000000af0      0x1ae ./User/lcd.o
                0x0000000000000af0                lcd_show_char
 .text.lcd_show_string
                0x0000000000000c9e       0xcc ./User/lcd.o
                0x0000000000000c9e                lcd_show_string
 .text.lcd_show_image
                0x0000000000000d6a       0x82 ./User/lcd.o
                0x0000000000000d6a                lcd_show_image
 .text.Ethernet_LED_Configuration
                0x0000000000000dec       0x4c ./User/main.o
                0x0000000000000dec                Ethernet_LED_Configuration
 .text.Ethernet_LED_LINKSET
                0x0000000000000e38       0x1e ./User/main.o
                0x0000000000000e38                Ethernet_LED_LINKSET
 .text.Ethernet_LED_DATASET
                0x0000000000000e56       0x1e ./User/main.o
                0x0000000000000e56                Ethernet_LED_DATASET
 .text.mStopIfError
                0x0000000000000e74       0x12 ./User/main.o
                0x0000000000000e74                mStopIfError
 .text.WCHNET_LibInit
                0x0000000000000e86       0x46 ./User/main.o
                0x0000000000000e86                WCHNET_LibInit
 .text.SET_MCO  0x0000000000000ecc       0x46 ./User/main.o
                0x0000000000000ecc                SET_MCO
 .text.TIM2_Init
                0x0000000000000f12       0x62 ./User/main.o
                0x0000000000000f12                TIM2_Init
 .text.WCHNET_CreatTcpSocket
                0x0000000000000f74       0x98 ./User/main.o
                0x0000000000000f74                WCHNET_CreatTcpSocket
 .text.WCHNET_HandleSockInt
                0x000000000000100c      0x294 ./User/main.o
                0x000000000000100c                WCHNET_HandleSockInt
 .text.WCHNET_HandleGlobalInt
                0x00000000000012a0       0x7e ./User/main.o
                0x00000000000012a0                WCHNET_HandleGlobalInt
 .text.led_gpio
                0x000000000000131e       0x34 ./User/main.o
                0x000000000000131e                led_gpio
 .text.startup.main
                0x0000000000001352      0x192 ./User/main.o
                0x0000000000001352                main
 .text.SystemInit
                0x00000000000014e4       0xec ./User/system_ch32v30x.o
                0x00000000000014e4                SystemInit
 .text.vector_handler
                0x00000000000015d0       0xbe ./Startup/startup_ch32v30x.o
                0x00000000000015d4                Ecall_M_Mode_Handler
                0x00000000000015d6                Ecall_U_Mode_Handler
                0x00000000000015d8                Break_Point_Handler
                0x00000000000015da                SysTick_Handler
                0x00000000000015dc                SW_handler
                0x00000000000015de                WWDG_IRQHandler
                0x00000000000015e0                PVD_IRQHandler
                0x00000000000015e2                TAMPER_IRQHandler
                0x00000000000015e4                RTC_IRQHandler
                0x00000000000015e6                FLASH_IRQHandler
                0x00000000000015e8                RCC_IRQHandler
                0x00000000000015ea                EXTI0_IRQHandler
                0x00000000000015ec                EXTI1_IRQHandler
                0x00000000000015ee                EXTI2_IRQHandler
                0x00000000000015f0                EXTI3_IRQHandler
                0x00000000000015f2                EXTI4_IRQHandler
                0x00000000000015f4                DMA1_Channel1_IRQHandler
                0x00000000000015f6                DMA1_Channel2_IRQHandler
                0x00000000000015f8                DMA1_Channel3_IRQHandler
                0x00000000000015fa                DMA1_Channel4_IRQHandler
                0x00000000000015fc                DMA1_Channel5_IRQHandler
                0x00000000000015fe                DMA1_Channel6_IRQHandler
                0x0000000000001600                DMA1_Channel7_IRQHandler
                0x0000000000001602                ADC1_2_IRQHandler
                0x0000000000001604                USB_HP_CAN1_TX_IRQHandler
                0x0000000000001606                USB_LP_CAN1_RX0_IRQHandler
                0x0000000000001608                CAN1_RX1_IRQHandler
                0x000000000000160a                CAN1_SCE_IRQHandler
                0x000000000000160c                EXTI9_5_IRQHandler
                0x000000000000160e                TIM1_BRK_IRQHandler
                0x0000000000001610                TIM1_UP_IRQHandler
                0x0000000000001612                TIM1_TRG_COM_IRQHandler
                0x0000000000001614                TIM1_CC_IRQHandler
                0x0000000000001618                TIM3_IRQHandler
                0x000000000000161a                TIM4_IRQHandler
                0x000000000000161c                I2C1_EV_IRQHandler
                0x000000000000161e                I2C1_ER_IRQHandler
                0x0000000000001620                I2C2_EV_IRQHandler
                0x0000000000001622                I2C2_ER_IRQHandler
                0x0000000000001624                SPI1_IRQHandler
                0x0000000000001626                SPI2_IRQHandler
                0x0000000000001628                USART1_IRQHandler
                0x000000000000162a                USART2_IRQHandler
                0x000000000000162c                USART3_IRQHandler
                0x000000000000162e                EXTI15_10_IRQHandler
                0x0000000000001630                RTCAlarm_IRQHandler
                0x0000000000001632                USBWakeUp_IRQHandler
                0x0000000000001634                TIM8_BRK_IRQHandler
                0x0000000000001636                TIM8_UP_IRQHandler
                0x0000000000001638                TIM8_TRG_COM_IRQHandler
                0x000000000000163a                TIM8_CC_IRQHandler
                0x000000000000163c                RNG_IRQHandler
                0x000000000000163e                FSMC_IRQHandler
                0x0000000000001640                SDIO_IRQHandler
                0x0000000000001642                TIM5_IRQHandler
                0x0000000000001644                SPI3_IRQHandler
                0x0000000000001646                UART4_IRQHandler
                0x0000000000001648                UART5_IRQHandler
                0x000000000000164a                TIM6_IRQHandler
                0x000000000000164c                TIM7_IRQHandler
                0x000000000000164e                DMA2_Channel1_IRQHandler
                0x0000000000001650                DMA2_Channel2_IRQHandler
                0x0000000000001652                DMA2_Channel3_IRQHandler
                0x0000000000001654                DMA2_Channel4_IRQHandler
                0x0000000000001656                DMA2_Channel5_IRQHandler
                0x000000000000165a                ETH_WKUP_IRQHandler
                0x000000000000165c                CAN2_TX_IRQHandler
                0x000000000000165e                CAN2_RX0_IRQHandler
                0x0000000000001660                CAN2_RX1_IRQHandler
                0x0000000000001662                CAN2_SCE_IRQHandler
                0x0000000000001664                OTG_FS_IRQHandler
                0x0000000000001666                USBHSWakeup_IRQHandler
                0x0000000000001668                USBHS_IRQHandler
                0x000000000000166a                DVP_IRQHandler
                0x000000000000166c                UART6_IRQHandler
                0x000000000000166e                UART7_IRQHandler
                0x0000000000001670                UART8_IRQHandler
                0x0000000000001672                TIM9_BRK_IRQHandler
                0x0000000000001674                TIM9_UP_IRQHandler
                0x0000000000001676                TIM9_TRG_COM_IRQHandler
                0x0000000000001678                TIM9_CC_IRQHandler
                0x000000000000167a                TIM10_BRK_IRQHandler
                0x000000000000167c                TIM10_UP_IRQHandler
                0x000000000000167e                TIM10_TRG_COM_IRQHandler
                0x0000000000001680                TIM10_CC_IRQHandler
                0x0000000000001682                DMA2_Channel6_IRQHandler
                0x0000000000001684                DMA2_Channel7_IRQHandler
                0x0000000000001686                DMA2_Channel8_IRQHandler
                0x0000000000001688                DMA2_Channel9_IRQHandler
                0x000000000000168a                DMA2_Channel10_IRQHandler
                0x000000000000168c                DMA2_Channel11_IRQHandler
 .text.handle_reset
                0x000000000000168e       0x92 ./Startup/startup_ch32v30x.o
                0x000000000000168e                handle_reset
 .text.ETH_DeInit
                0x0000000000001720       0x18 ./Peripheral/src/ch32v30x_eth.o
                0x0000000000001720                ETH_DeInit
 .text.ETH_StructInit
                0x0000000000001738       0xd8 ./Peripheral/src/ch32v30x_eth.o
                0x0000000000001738                ETH_StructInit
 .text.ETH_ReadPHYRegister
                0x0000000000001810       0x58 ./Peripheral/src/ch32v30x_eth.o
                0x0000000000001810                ETH_ReadPHYRegister
 .text.ETH_WritePHYRegister
                0x0000000000001868       0x52 ./Peripheral/src/ch32v30x_eth.o
                0x0000000000001868                ETH_WritePHYRegister
 .text.ETH_DMATxDescChainInit
                0x00000000000018ba       0x46 ./Peripheral/src/ch32v30x_eth.o
                0x00000000000018ba                ETH_DMATxDescChainInit
 .text.ETH_DMARxDescChainInit
                0x0000000000001900       0x50 ./Peripheral/src/ch32v30x_eth.o
                0x0000000000001900                ETH_DMARxDescChainInit
 .text.ETH_SoftwareReset
                0x0000000000001950        0xe ./Peripheral/src/ch32v30x_eth.o
                0x0000000000001950                ETH_SoftwareReset
 .text.ETH_DMAClearITPendingBit
                0x000000000000195e        0x8 ./Peripheral/src/ch32v30x_eth.o
                0x000000000000195e                ETH_DMAClearITPendingBit
 .text.ETH_FlushTransmitFIFO
                0x0000000000001966       0x10 ./Peripheral/src/ch32v30x_eth.o
                0x0000000000001966                ETH_FlushTransmitFIFO
 .text.ETH_Start
                0x0000000000001976       0x38 ./Peripheral/src/ch32v30x_eth.o
                0x0000000000001976                ETH_Start
 .text.ETH_DMAITConfig
                0x00000000000019ae       0x1e ./Peripheral/src/ch32v30x_eth.o
                0x00000000000019ae                ETH_DMAITConfig
 .text.ETH_GetCurrentTxBufferAddress
                0x00000000000019cc        0xc ./Peripheral/src/ch32v30x_eth.o
                0x00000000000019cc                ETH_GetCurrentTxBufferAddress
 .text.FSMC_NORSRAMInit
                0x00000000000019d8       0xba ./Peripheral/src/ch32v30x_fsmc.o
                0x00000000000019d8                FSMC_NORSRAMInit
 .text.FSMC_NORSRAMCmd
                0x0000000000001a92       0x1e ./Peripheral/src/ch32v30x_fsmc.o
                0x0000000000001a92                FSMC_NORSRAMCmd
 .text.GPIO_Init
                0x0000000000001ab0       0xc2 ./Peripheral/src/ch32v30x_gpio.o
                0x0000000000001ab0                GPIO_Init
 .text.GPIO_SetBits
                0x0000000000001b72        0x4 ./Peripheral/src/ch32v30x_gpio.o
                0x0000000000001b72                GPIO_SetBits
 .text.GPIO_ResetBits
                0x0000000000001b76        0x4 ./Peripheral/src/ch32v30x_gpio.o
                0x0000000000001b76                GPIO_ResetBits
 .text.GPIO_WriteBit
                0x0000000000001b7a        0xa ./Peripheral/src/ch32v30x_gpio.o
                0x0000000000001b7a                GPIO_WriteBit
 .text.I2C_Init
                0x0000000000001b84      0x11a ./Peripheral/src/ch32v30x_i2c.o
                0x0000000000001b84                I2C_Init
 .text.I2C_Cmd  0x0000000000001c9e       0x1c ./Peripheral/src/ch32v30x_i2c.o
                0x0000000000001c9e                I2C_Cmd
 .text.I2C_GenerateSTART
                0x0000000000001cba       0x1e ./Peripheral/src/ch32v30x_i2c.o
                0x0000000000001cba                I2C_GenerateSTART
 .text.I2C_GenerateSTOP
                0x0000000000001cd8       0x1e ./Peripheral/src/ch32v30x_i2c.o
                0x0000000000001cd8                I2C_GenerateSTOP
 .text.I2C_AcknowledgeConfig
                0x0000000000001cf6       0x1e ./Peripheral/src/ch32v30x_i2c.o
                0x0000000000001cf6                I2C_AcknowledgeConfig
 .text.I2C_SendData
                0x0000000000001d14        0x6 ./Peripheral/src/ch32v30x_i2c.o
                0x0000000000001d14                I2C_SendData
 .text.I2C_Send7bitAddress
                0x0000000000001d1a       0x14 ./Peripheral/src/ch32v30x_i2c.o
                0x0000000000001d1a                I2C_Send7bitAddress
 .text.I2C_CheckEvent
                0x0000000000001d2e       0x1a ./Peripheral/src/ch32v30x_i2c.o
                0x0000000000001d2e                I2C_CheckEvent
 .text.I2C_GetFlagStatus
                0x0000000000001d48       0x32 ./Peripheral/src/ch32v30x_i2c.o
                0x0000000000001d48                I2C_GetFlagStatus
 .text.RCC_GetClocksFreq
                0x0000000000001d7a      0x10e ./Peripheral/src/ch32v30x_rcc.o
                0x0000000000001d7a                RCC_GetClocksFreq
 .text.RCC_AHBPeriphClockCmd
                0x0000000000001e88       0x1e ./Peripheral/src/ch32v30x_rcc.o
                0x0000000000001e88                RCC_AHBPeriphClockCmd
 .text.RCC_APB2PeriphClockCmd
                0x0000000000001ea6       0x1e ./Peripheral/src/ch32v30x_rcc.o
                0x0000000000001ea6                RCC_APB2PeriphClockCmd
 .text.RCC_APB1PeriphClockCmd
                0x0000000000001ec4       0x1e ./Peripheral/src/ch32v30x_rcc.o
                0x0000000000001ec4                RCC_APB1PeriphClockCmd
 .text.RCC_MCOConfig
                0x0000000000001ee2        0xa ./Peripheral/src/ch32v30x_rcc.o
                0x0000000000001ee2                RCC_MCOConfig
 .text.RCC_GetFlagStatus
                0x0000000000001eec       0x2e ./Peripheral/src/ch32v30x_rcc.o
                0x0000000000001eec                RCC_GetFlagStatus
 .text.RCC_PREDIV2Config
                0x0000000000001f1a       0x10 ./Peripheral/src/ch32v30x_rcc.o
                0x0000000000001f1a                RCC_PREDIV2Config
 .text.RCC_PLL3Config
                0x0000000000001f2a       0x12 ./Peripheral/src/ch32v30x_rcc.o
                0x0000000000001f2a                RCC_PLL3Config
 .text.RCC_PLL3Cmd
                0x0000000000001f3c       0x24 ./Peripheral/src/ch32v30x_rcc.o
                0x0000000000001f3c                RCC_PLL3Cmd
 .text.RCC_AHBPeriphResetCmd
                0x0000000000001f60       0x1e ./Peripheral/src/ch32v30x_rcc.o
                0x0000000000001f60                RCC_AHBPeriphResetCmd
 .text.TIM_TimeBaseInit
                0x0000000000001f7e       0xc0 ./Peripheral/src/ch32v30x_tim.o
                0x0000000000001f7e                TIM_TimeBaseInit
 .text.TIM_OC2Init
                0x000000000000203e       0xcc ./Peripheral/src/ch32v30x_tim.o
                0x000000000000203e                TIM_OC2Init
 .text.TIM_Cmd  0x000000000000210a       0x1c ./Peripheral/src/ch32v30x_tim.o
                0x000000000000210a                TIM_Cmd
 .text.TIM_CtrlPWMOutputs
                0x0000000000002126       0x16 ./Peripheral/src/ch32v30x_tim.o
                0x0000000000002126                TIM_CtrlPWMOutputs
 .text.TIM_ITConfig
                0x000000000000213c       0x16 ./Peripheral/src/ch32v30x_tim.o
                0x000000000000213c                TIM_ITConfig
 .text.TIM_ARRPreloadConfig
                0x0000000000002152       0x1e ./Peripheral/src/ch32v30x_tim.o
                0x0000000000002152                TIM_ARRPreloadConfig
 .text.TIM_OC2PreloadConfig
                0x0000000000002170       0x1a ./Peripheral/src/ch32v30x_tim.o
                0x0000000000002170                TIM_OC2PreloadConfig
 .text.TIM_SetCompare2
                0x000000000000218a        0x6 ./Peripheral/src/ch32v30x_tim.o
                0x000000000000218a                TIM_SetCompare2
 .text.TIM_ClearITPendingBit
                0x0000000000002190        0xe ./Peripheral/src/ch32v30x_tim.o
                0x0000000000002190                TIM_ClearITPendingBit
 .text.USART_Init
                0x000000000000219e       0xda ./Peripheral/src/ch32v30x_usart.o
                0x000000000000219e                USART_Init
 .text.USART_Cmd
                0x0000000000002278       0x1c ./Peripheral/src/ch32v30x_usart.o
                0x0000000000002278                USART_Cmd
 .text.USART_SendData
                0x0000000000002294        0xa ./Peripheral/src/ch32v30x_usart.o
                0x0000000000002294                USART_SendData
 .text.USART_GetFlagStatus
                0x000000000000229e        0xc ./Peripheral/src/ch32v30x_usart.o
                0x000000000000229e                USART_GetFlagStatus
 .text.Delay_Init
                0x00000000000022aa       0x26 ./Debug/debug.o
                0x00000000000022aa                Delay_Init
 .text.Delay_Ms
                0x00000000000022d0       0x2c ./Debug/debug.o
                0x00000000000022d0                Delay_Ms
 .text.USART_Printf_Init
                0x00000000000022fc       0x5a ./Debug/debug.o
                0x00000000000022fc                USART_Printf_Init
 .text._write   0x0000000000002356       0x4c ./Debug/debug.o
                0x0000000000002356                _write
 .text.__get_MEPC
                0x00000000000023a2        0x6 ./Core/core_riscv.o
                0x00000000000023a2                __get_MEPC
 .text.__get_MCAUSE
                0x00000000000023a8        0x6 ./Core/core_riscv.o
                0x00000000000023a8                __get_MCAUSE
 .text.__get_MTVAL
                0x00000000000023ae        0x6 ./Core/core_riscv.o
                0x00000000000023ae                __get_MTVAL
 .text.WCH_GetMac
                0x00000000000023b4       0x20 D:\opench-ch32v307\firmware\TcpClient\NetLib\libwchnet.a(eth_driver.o)
                0x00000000000023b4                WCH_GetMac
 .text.ETH_RxPkt_Handle
                0x00000000000023d4       0xe4 D:\opench-ch32v307\firmware\TcpClient\NetLib\libwchnet.a(eth_driver.o)
                0x00000000000023d4                ETH_RxPkt_Handle
 .text.ETH_TxPkt_ChainMode
                0x00000000000024b8       0x3c D:\opench-ch32v307\firmware\TcpClient\NetLib\libwchnet.a(eth_driver.o)
                0x00000000000024b8                ETH_TxPkt_ChainMode
 .text.mac_send
                0x00000000000024f4       0x30 D:\opench-ch32v307\firmware\TcpClient\NetLib\libwchnet.a(eth_driver.o)
                0x00000000000024f4                mac_send
 .text.ETH_Init
                0x0000000000002524      0x164 D:\opench-ch32v307\firmware\TcpClient\NetLib\libwchnet.a(eth_driver.o)
                0x0000000000002524                ETH_Init
 .text.Ethernet_Configuration
                0x0000000000002688       0xae D:\opench-ch32v307\firmware\TcpClient\NetLib\libwchnet.a(eth_driver.o)
                0x0000000000002688                Ethernet_Configuration
 .text.CH563TCPError
                0x0000000000002736        0x2 D:\opench-ch32v307\firmware\TcpClient\NetLib\libwchnet.a(socket.o)
                0x0000000000002736                CH563TCPError
 .text.LwipTCPSendCallBack
                0x0000000000002738       0x3c D:\opench-ch32v307\firmware\TcpClient\NetLib\libwchnet.a(socket.o)
                0x0000000000002738                LwipTCPSendCallBack
 .text.LwipTCPPollCallBack
                0x0000000000002774        0x4 D:\opench-ch32v307\firmware\TcpClient\NetLib\libwchnet.a(socket.o)
                0x0000000000002774                LwipTCPPollCallBack
 .text.SocketIPRAWReceive
                0x0000000000002778       0xc2 D:\opench-ch32v307\firmware\TcpClient\NetLib\libwchnet.a(socket.o)
                0x0000000000002778                SocketIPRAWReceive
 .text.SocketUdpReceive
                0x000000000000283a       0xfc D:\opench-ch32v307\firmware\TcpClient\NetLib\libwchnet.a(socket.o)
                0x000000000000283a                SocketUdpReceive
 .text.WCHSocketTCPReceive
                0x0000000000002936      0x13a D:\opench-ch32v307\firmware\TcpClient\NetLib\libwchnet.a(socket.o)
                0x0000000000002936                WCHSocketTCPReceive
 .text.LwipTcpConnectedCallBack
                0x0000000000002a70       0x42 D:\opench-ch32v307\firmware\TcpClient\NetLib\libwchnet.a(socket.o)
                0x0000000000002a70                LwipTcpConnectedCallBack
 .text.ErrorEncode
                0x0000000000002ab2       0x1a D:\opench-ch32v307\firmware\TcpClient\NetLib\libwchnet.a(socket.o)
                0x0000000000002ab2                ErrorEncode
 .text.MemShortCopy
                0x0000000000002acc       0x1e D:\opench-ch32v307\firmware\TcpClient\NetLib\libwchnet.a(socket.o)
                0x0000000000002acc                MemShortCopy
 .text.WCHSocketInit
                0x0000000000002aea       0x4c D:\opench-ch32v307\firmware\TcpClient\NetLib\libwchnet.a(socket.o)
                0x0000000000002aea                WCHSocketInit
 .text.WCHNET_Init
                0x0000000000002b36       0xee D:\opench-ch32v307\firmware\TcpClient\NetLib\libwchnet.a(socket.o)
                0x0000000000002b36                WCHNET_Init
 .text.WCHNET_ConfigLIB
                0x0000000000002c24       0x1c D:\opench-ch32v307\firmware\TcpClient\NetLib\libwchnet.a(socket.o)
                0x0000000000002c24                WCHNET_ConfigLIB
 .text.PhyDataLed_fun
                0x0000000000002c40       0x40 D:\opench-ch32v307\firmware\TcpClient\NetLib\libwchnet.a(socket.o)
                0x0000000000002c40                PhyDataLed_fun
 .text.WCHNET_ETHIsr
                0x0000000000002c80       0xac D:\opench-ch32v307\firmware\TcpClient\NetLib\libwchnet.a(socket.o)
                0x0000000000002c80                WCHNET_ETHIsr
 .text.WCHNET_TimeIsr
                0x0000000000002d2c        0xc D:\opench-ch32v307\firmware\TcpClient\NetLib\libwchnet.a(socket.o)
                0x0000000000002d2c                WCHNET_TimeIsr
 .text.WCHFindCorrectTCBPcb
                0x0000000000002d38       0x5c D:\opench-ch32v307\firmware\TcpClient\NetLib\libwchnet.a(socket.o)
                0x0000000000002d38                WCHFindCorrectTCBPcb
 .text.WCHNET_SocketCreat
                0x0000000000002d94      0x1b6 D:\opench-ch32v307\firmware\TcpClient\NetLib\libwchnet.a(socket.o)
                0x0000000000002d94                WCHNET_SocketCreat
 .text.tcp_recved_socket
                0x0000000000002f4a       0x28 D:\opench-ch32v307\firmware\TcpClient\NetLib\libwchnet.a(socket.o)
                0x0000000000002f4a                tcp_recved_socket
 .text.WCHNET_SocketRecv
                0x0000000000002f72      0x1d0 D:\opench-ch32v307\firmware\TcpClient\NetLib\libwchnet.a(socket.o)
                0x0000000000002f72                WCHNET_SocketRecv
 .text.WCHNET_SocketRecvLen
                0x0000000000003142       0x26 D:\opench-ch32v307\firmware\TcpClient\NetLib\libwchnet.a(socket.o)
                0x0000000000003142                WCHNET_SocketRecvLen
 .text.SocketIPRawSend
                0x0000000000003168       0xe8 D:\opench-ch32v307\firmware\TcpClient\NetLib\libwchnet.a(socket.o)
                0x0000000000003168                SocketIPRawSend
 .text.SocketUdpSend
                0x0000000000003250       0xcc D:\opench-ch32v307\firmware\TcpClient\NetLib\libwchnet.a(socket.o)
                0x0000000000003250                SocketUdpSend
 .text.WCHScokedIntHandle
                0x000000000000331c       0x62 D:\opench-ch32v307\firmware\TcpClient\NetLib\libwchnet.a(socket.o)
                0x000000000000331c                WCHScokedIntHandle
 .text.LwipRemoveTcpPcb
                0x000000000000337e       0xa2 D:\opench-ch32v307\firmware\TcpClient\NetLib\libwchnet.a(socket.o)
                0x000000000000337e                LwipRemoveTcpPcb
 .text.WCHNET_QueryGlobalInt
                0x0000000000003420       0x2c D:\opench-ch32v307\firmware\TcpClient\NetLib\libwchnet.a(socket.o)
                0x0000000000003420                WCHNET_QueryGlobalInt
 .text.WCHNET_GetGlobalInt
                0x000000000000344c        0xe D:\opench-ch32v307\firmware\TcpClient\NetLib\libwchnet.a(socket.o)
                0x000000000000344c                WCHNET_GetGlobalInt
 .text.WCHNET_GetSocketInt
                0x000000000000345a       0x24 D:\opench-ch32v307\firmware\TcpClient\NetLib\libwchnet.a(socket.o)
                0x000000000000345a                WCHNET_GetSocketInt
 .text.CH563IPSetSocketRecvInit
                0x000000000000347e       0x2a D:\opench-ch32v307\firmware\TcpClient\NetLib\libwchnet.a(socket.o)
                0x000000000000347e                CH563IPSetSocketRecvInit
 .text.WCHNET_MainTask
                0x00000000000034a8       0x28 D:\opench-ch32v307\firmware\TcpClient\NetLib\libwchnet.a(socket.o)
                0x00000000000034a8                WCHNET_MainTask
 .text.SocketTcpSend
                0x00000000000034d0      0x110 D:\opench-ch32v307\firmware\TcpClient\NetLib\libwchnet.a(socket.o)
                0x00000000000034d0                SocketTcpSend
 .text.WCHNET_SocketSend
                0x00000000000035e0       0x56 D:\opench-ch32v307\firmware\TcpClient\NetLib\libwchnet.a(socket.o)
                0x00000000000035e0                WCHNET_SocketSend
 .text.WCHNET_GetPHYStatus
                0x0000000000003636        0x6 D:\opench-ch32v307\firmware\TcpClient\NetLib\libwchnet.a(socket.o)
                0x0000000000003636                WCHNET_GetPHYStatus
 .text.WCHNET_SocketConnect
                0x000000000000363c       0x6c D:\opench-ch32v307\firmware\TcpClient\NetLib\libwchnet.a(socket.o)
                0x000000000000363c                WCHNET_SocketConnect
 .text.QueryPingEnable
                0x00000000000036a8        0x4 D:\opench-ch32v307\firmware\TcpClient\NetLib\libwchnet.a(socket.o)
                0x00000000000036a8                QueryPingEnable
 .text.LwipUnreachPort
                0x00000000000036ac       0x16 D:\opench-ch32v307\firmware\TcpClient\NetLib\libwchnet.a(socket.o)
                0x00000000000036ac                LwipUnreachPort
 .text.LwipArpCheck
                0x00000000000036c2        0x8 D:\opench-ch32v307\firmware\TcpClient\NetLib\libwchnet.a(socket.o)
                0x00000000000036c2                LwipArpCheck
 .text.find_entry
                0x00000000000036ca      0x17a D:\opench-ch32v307\firmware\TcpClient\NetLib\libwchnet.a(etharp.o)
 .text.update_arp_entry
                0x0000000000003844       0xae D:\opench-ch32v307\firmware\TcpClient\NetLib\libwchnet.a(etharp.o)
 .text.etharp_tmr
                0x00000000000038f2       0x4a D:\opench-ch32v307\firmware\TcpClient\NetLib\libwchnet.a(etharp.o)
                0x00000000000038f2                etharp_tmr
 .text.etharp_ip_input
                0x000000000000393c       0x38 D:\opench-ch32v307\firmware\TcpClient\NetLib\libwchnet.a(etharp.o)
                0x000000000000393c                etharp_ip_input
 .text.etharp_arp_input
                0x0000000000003974      0x15e D:\opench-ch32v307\firmware\TcpClient\NetLib\libwchnet.a(etharp.o)
                0x0000000000003974                etharp_arp_input
 .text.etharp_request
                0x0000000000003ad2       0xd8 D:\opench-ch32v307\firmware\TcpClient\NetLib\libwchnet.a(etharp.o)
                0x0000000000003ad2                etharp_request
 .text.etharp_query
                0x0000000000003baa       0xe2 D:\opench-ch32v307\firmware\TcpClient\NetLib\libwchnet.a(etharp.o)
                0x0000000000003baa                etharp_query
 .text.etharp_output
                0x0000000000003c8c      0x13c D:\opench-ch32v307\firmware\TcpClient\NetLib\libwchnet.a(etharp.o)
                0x0000000000003c8c                etharp_output
 .text.ethernet_input
                0x0000000000003dc8       0x58 D:\opench-ch32v307\firmware\TcpClient\NetLib\libwchnet.a(etharp.o)
                0x0000000000003dc8                ethernet_input
 .text.low_level_output
                0x0000000000003e20       0xa4 D:\opench-ch32v307\firmware\TcpClient\NetLib\libwchnet.a(ethernetif.o)
 .text.low_level_init
                0x0000000000003ec4       0x72 D:\opench-ch32v307\firmware\TcpClient\NetLib\libwchnet.a(ethernetif.o)
                0x0000000000003ec4                low_level_init
 .text.ethernetif_init
                0x0000000000003f36       0x34 D:\opench-ch32v307\firmware\TcpClient\NetLib\libwchnet.a(ethernetif.o)
                0x0000000000003f36                ethernetif_init
 .text.ethernetif_input
                0x0000000000003f6a      0x188 D:\opench-ch32v307\firmware\TcpClient\NetLib\libwchnet.a(ethernetif.o)
                0x0000000000003f6a                ethernetif_input
 .text.SetupNetif
                0x00000000000040f2       0xa4 D:\opench-ch32v307\firmware\TcpClient\NetLib\libwchnet.a(ethernetif.o)
                0x00000000000040f2                SetupNetif
 .text.LwIPPeriodicHandle
                0x0000000000004196       0xf4 D:\opench-ch32v307\firmware\TcpClient\NetLib\libwchnet.a(ethernetif.o)
                0x0000000000004196                LwIPPeriodicHandle
 .text.htons    0x000000000000428a        0xe D:\opench-ch32v307\firmware\TcpClient\NetLib\libwchnet.a(inet.o)
                0x000000000000428a                htons
 .text.ntohs    0x0000000000004298        0xe D:\opench-ch32v307\firmware\TcpClient\NetLib\libwchnet.a(inet.o)
                0x0000000000004298                ntohs
 .text.htonl    0x00000000000042a6       0x24 D:\opench-ch32v307\firmware\TcpClient\NetLib\libwchnet.a(inet.o)
                0x00000000000042a6                htonl
 .text.ntohl    0x00000000000042ca        0xc D:\opench-ch32v307\firmware\TcpClient\NetLib\libwchnet.a(inet.o)
                0x00000000000042ca                ntohl
 .text.ip_route
                0x00000000000042d6       0x4c D:\opench-ch32v307\firmware\TcpClient\NetLib\libwchnet.a(ip.o)
                0x00000000000042d6                ip_route
 .text.ip_input
                0x0000000000004322      0x2b8 D:\opench-ch32v307\firmware\TcpClient\NetLib\libwchnet.a(ip.o)
                0x0000000000004322                ip_input
 .text.ip_output_if
                0x00000000000045da      0x15a D:\opench-ch32v307\firmware\TcpClient\NetLib\libwchnet.a(ip.o)
                0x00000000000045da                ip_output_if
 .text.ip_output
                0x0000000000004734       0x36 D:\opench-ch32v307\firmware\TcpClient\NetLib\libwchnet.a(ip.o)
                0x0000000000004734                ip_output
 .text.ip_addr_isbroadcast
                0x000000000000476a       0x4a D:\opench-ch32v307\firmware\TcpClient\NetLib\libwchnet.a(ip_addr.o)
                0x000000000000476a                ip_addr_isbroadcast
 .text.ip_reass_tmr
                0x00000000000047b4       0xe6 D:\opench-ch32v307\firmware\TcpClient\NetLib\libwchnet.a(ip_frag.o)
                0x00000000000047b4                ip_reass_tmr
 .text.ip_reass
                0x000000000000489a      0x3d6 D:\opench-ch32v307\firmware\TcpClient\NetLib\libwchnet.a(ip_frag.o)
                0x000000000000489a                ip_reass
 .text.ip_frag  0x0000000000004c70      0x176 D:\opench-ch32v307\firmware\TcpClient\NetLib\libwchnet.a(ip_frag.o)
                0x0000000000004c70                ip_frag
 .text.lwip_init
                0x0000000000004de6       0x14 D:\opench-ch32v307\firmware\TcpClient\NetLib\libwchnet.a(init.o)
                0x0000000000004de6                lwip_init
 .text.mem_init
                0x0000000000004dfa       0x3a D:\opench-ch32v307\firmware\TcpClient\NetLib\libwchnet.a(mem.o)
                0x0000000000004dfa                mem_init
 .text.mem_free
                0x0000000000004e34       0x84 D:\opench-ch32v307\firmware\TcpClient\NetLib\libwchnet.a(mem.o)
                0x0000000000004e34                mem_free
 .text.mem_realloc
                0x0000000000004eb8       0xc6 D:\opench-ch32v307\firmware\TcpClient\NetLib\libwchnet.a(mem.o)
                0x0000000000004eb8                mem_realloc
 .text.mem_malloc
                0x0000000000004f7e       0xcc D:\opench-ch32v307\firmware\TcpClient\NetLib\libwchnet.a(mem.o)
                0x0000000000004f7e                mem_malloc
 .text.memp_init
                0x000000000000504a       0x4c D:\opench-ch32v307\firmware\TcpClient\NetLib\libwchnet.a(memp.o)
                0x000000000000504a                memp_init
 .text.memp_malloc
                0x0000000000005096       0x1c D:\opench-ch32v307\firmware\TcpClient\NetLib\libwchnet.a(memp.o)
                0x0000000000005096                memp_malloc
 .text.memp_free
                0x00000000000050b2       0x14 D:\opench-ch32v307\firmware\TcpClient\NetLib\libwchnet.a(memp.o)
                0x00000000000050b2                memp_free
 .text.netif_set_ipaddr
                0x00000000000050c6       0x96 D:\opench-ch32v307\firmware\TcpClient\NetLib\libwchnet.a(netif.o)
                0x00000000000050c6                netif_set_ipaddr
 .text.netif_set_addr
                0x000000000000515c       0x4e D:\opench-ch32v307\firmware\TcpClient\NetLib\libwchnet.a(netif.o)
                0x000000000000515c                netif_set_addr
 .text.netif_add
                0x00000000000051aa       0x5a D:\opench-ch32v307\firmware\TcpClient\NetLib\libwchnet.a(netif.o)
                0x00000000000051aa                netif_add
 .text.netif_set_default
                0x0000000000005204        0x6 D:\opench-ch32v307\firmware\TcpClient\NetLib\libwchnet.a(netif.o)
                0x0000000000005204                netif_set_default
 .text.netif_is_up
                0x000000000000520a        0x8 D:\opench-ch32v307\firmware\TcpClient\NetLib\libwchnet.a(netif.o)
                0x000000000000520a                netif_is_up
 .text.pbuf_header
                0x0000000000005212       0x6e D:\opench-ch32v307\firmware\TcpClient\NetLib\libwchnet.a(pbuf.o)
                0x0000000000005212                pbuf_header
 .text.pbuf_free
                0x0000000000005280       0x4e D:\opench-ch32v307\firmware\TcpClient\NetLib\libwchnet.a(pbuf.o)
                0x0000000000005280                pbuf_free
 .text.pbuf_alloc
                0x00000000000052ce      0x13c D:\opench-ch32v307\firmware\TcpClient\NetLib\libwchnet.a(pbuf.o)
                0x00000000000052ce                pbuf_alloc
 .text.pbuf_realloc
                0x000000000000540a       0x58 D:\opench-ch32v307\firmware\TcpClient\NetLib\libwchnet.a(pbuf.o)
                0x000000000000540a                pbuf_realloc
 .text.pbuf_clen
                0x0000000000005462       0x12 D:\opench-ch32v307\firmware\TcpClient\NetLib\libwchnet.a(pbuf.o)
                0x0000000000005462                pbuf_clen
 .text.pbuf_ref
                0x0000000000005474        0xa D:\opench-ch32v307\firmware\TcpClient\NetLib\libwchnet.a(pbuf.o)
                0x0000000000005474                pbuf_ref
 .text.pbuf_cat
                0x000000000000547e       0x1c D:\opench-ch32v307\firmware\TcpClient\NetLib\libwchnet.a(pbuf.o)
                0x000000000000547e                pbuf_cat
 .text.pbuf_chain
                0x000000000000549a       0x14 D:\opench-ch32v307\firmware\TcpClient\NetLib\libwchnet.a(pbuf.o)
                0x000000000000549a                pbuf_chain
 .text.pbuf_copy
                0x00000000000054ae       0x9c D:\opench-ch32v307\firmware\TcpClient\NetLib\libwchnet.a(pbuf.o)
                0x00000000000054ae                pbuf_copy
 .text.raw_input
                0x000000000000554a       0x68 D:\opench-ch32v307\firmware\TcpClient\NetLib\libwchnet.a(raw.o)
                0x000000000000554a                raw_input
 .text.raw_bind
                0x00000000000055b2       0x1e D:\opench-ch32v307\firmware\TcpClient\NetLib\libwchnet.a(raw.o)
                0x00000000000055b2                raw_bind
 .text.raw_connect
                0x00000000000055d0       0x1e D:\opench-ch32v307\firmware\TcpClient\NetLib\libwchnet.a(raw.o)
                0x00000000000055d0                raw_connect
 .text.raw_recv
                0x00000000000055ee        0x6 D:\opench-ch32v307\firmware\TcpClient\NetLib\libwchnet.a(raw.o)
                0x00000000000055ee                raw_recv
 .text.raw_sendto
                0x00000000000055f4       0x7e D:\opench-ch32v307\firmware\TcpClient\NetLib\libwchnet.a(raw.o)
                0x00000000000055f4                raw_sendto
 .text.raw_send
                0x0000000000005672       0x10 D:\opench-ch32v307\firmware\TcpClient\NetLib\libwchnet.a(raw.o)
                0x0000000000005672                raw_send
 .text.raw_new  0x0000000000005682       0x30 D:\opench-ch32v307\firmware\TcpClient\NetLib\libwchnet.a(raw.o)
                0x0000000000005682                raw_new
 .text.tcp_new_port
                0x00000000000056b2       0x5c D:\opench-ch32v307\firmware\TcpClient\NetLib\libwchnet.a(tcp.o)
 .text.tcp_bind
                0x000000000000570e      0x116 D:\opench-ch32v307\firmware\TcpClient\NetLib\libwchnet.a(tcp.o)
                0x000000000000570e                tcp_bind
 .text.tcp_update_rcv_ann_wnd
                0x0000000000005824       0x40 D:\opench-ch32v307\firmware\TcpClient\NetLib\libwchnet.a(tcp.o)
                0x0000000000005824                tcp_update_rcv_ann_wnd
 .text.tcp_recved
                0x0000000000005864       0x44 D:\opench-ch32v307\firmware\TcpClient\NetLib\libwchnet.a(tcp.o)
                0x0000000000005864                tcp_recved
 .text.tcp_seg_free
                0x00000000000058a8       0x2a D:\opench-ch32v307\firmware\TcpClient\NetLib\libwchnet.a(tcp.o)
                0x00000000000058a8                tcp_seg_free
 .text.tcp_segs_free
                0x00000000000058d2       0x1e D:\opench-ch32v307\firmware\TcpClient\NetLib\libwchnet.a(tcp.o)
                0x00000000000058d2                tcp_segs_free
 .text.tcp_seg_copy
                0x00000000000058f0       0x28 D:\opench-ch32v307\firmware\TcpClient\NetLib\libwchnet.a(tcp.o)
                0x00000000000058f0                tcp_seg_copy
 .text.tcp_arg  0x0000000000005918        0x4 D:\opench-ch32v307\firmware\TcpClient\NetLib\libwchnet.a(tcp.o)
                0x0000000000005918                tcp_arg
 .text.tcp_recv
                0x000000000000591c        0x6 D:\opench-ch32v307\firmware\TcpClient\NetLib\libwchnet.a(tcp.o)
                0x000000000000591c                tcp_recv
 .text.tcp_sent
                0x0000000000005922        0x6 D:\opench-ch32v307\firmware\TcpClient\NetLib\libwchnet.a(tcp.o)
                0x0000000000005922                tcp_sent
 .text.tcp_err  0x0000000000005928        0x6 D:\opench-ch32v307\firmware\TcpClient\NetLib\libwchnet.a(tcp.o)
                0x0000000000005928                tcp_err
 .text.tcp_poll
                0x000000000000592e        0xa D:\opench-ch32v307\firmware\TcpClient\NetLib\libwchnet.a(tcp.o)
                0x000000000000592e                tcp_poll
 .text.tcp_pcb_purge
                0x0000000000005938       0x4c D:\opench-ch32v307\firmware\TcpClient\NetLib\libwchnet.a(tcp.o)
                0x0000000000005938                tcp_pcb_purge
 .text.tcp_slowtmr
                0x0000000000005984      0x270 D:\opench-ch32v307\firmware\TcpClient\NetLib\libwchnet.a(tcp.o)
                0x0000000000005984                tcp_slowtmr
 .text.RemoveTimeWaiTCP
                0x0000000000005bf4       0x32 D:\opench-ch32v307\firmware\TcpClient\NetLib\libwchnet.a(tcp.o)
                0x0000000000005bf4                RemoveTimeWaiTCP
 .text.tcp_pcb_remove
                0x0000000000005c26       0x72 D:\opench-ch32v307\firmware\TcpClient\NetLib\libwchnet.a(tcp.o)
                0x0000000000005c26                tcp_pcb_remove
 .text.tcp_close
                0x0000000000005c98       0xb2 D:\opench-ch32v307\firmware\TcpClient\NetLib\libwchnet.a(tcp.o)
                0x0000000000005c98                tcp_close
 .text.tcp_recv_null
                0x0000000000005d4a       0x30 D:\opench-ch32v307\firmware\TcpClient\NetLib\libwchnet.a(tcp.o)
                0x0000000000005d4a                tcp_recv_null
 .text.tcp_fasttmr
                0x0000000000005d7a       0x62 D:\opench-ch32v307\firmware\TcpClient\NetLib\libwchnet.a(tcp.o)
                0x0000000000005d7a                tcp_fasttmr
 .text.tcp_tmr  0x0000000000005ddc       0x22 D:\opench-ch32v307\firmware\TcpClient\NetLib\libwchnet.a(tcp.o)
                0x0000000000005ddc                tcp_tmr
 .text.tcp_abandon
                0x0000000000005dfe       0x98 D:\opench-ch32v307\firmware\TcpClient\NetLib\libwchnet.a(tcp.o)
                0x0000000000005dfe                tcp_abandon
 .text.tcp_next_iss
                0x0000000000005e96       0x10 D:\opench-ch32v307\firmware\TcpClient\NetLib\libwchnet.a(tcp.o)
                0x0000000000005e96                tcp_next_iss
 .text.tcp_alloc
                0x0000000000005ea6      0x130 D:\opench-ch32v307\firmware\TcpClient\NetLib\libwchnet.a(tcp.o)
                0x0000000000005ea6                tcp_alloc
 .text.tcp_new  0x0000000000005fd6       0x10 D:\opench-ch32v307\firmware\TcpClient\NetLib\libwchnet.a(tcp.o)
                0x0000000000005fd6                tcp_new
 .text.tcp_eff_send_mss
                0x0000000000005fe6       0x2e D:\opench-ch32v307\firmware\TcpClient\NetLib\libwchnet.a(tcp.o)
                0x0000000000005fe6                tcp_eff_send_mss
 .text.tcp_connect
                0x0000000000006014       0xe6 D:\opench-ch32v307\firmware\TcpClient\NetLib\libwchnet.a(tcp.o)
                0x0000000000006014                tcp_connect
 .text.tcp_oos_insert_segment
                0x00000000000060fa       0xce D:\opench-ch32v307\firmware\TcpClient\NetLib\libwchnet.a(tcp_in.o)
 .text.tcp_receive
                0x00000000000061c8      0x8c8 D:\opench-ch32v307\firmware\TcpClient\NetLib\libwchnet.a(tcp_in.o)
 .text.tcp_parseopt.isra.0
                0x0000000000006a90       0xa2 D:\opench-ch32v307\firmware\TcpClient\NetLib\libwchnet.a(tcp_in.o)
 .text.tcp_input
                0x0000000000006b32      0x9b2 D:\opench-ch32v307\firmware\TcpClient\NetLib\libwchnet.a(tcp_in.o)
                0x0000000000006b32                tcp_input
 .text.tcp_output_set_header.isra.0.constprop.1
                0x00000000000074e4       0xcc D:\opench-ch32v307\firmware\TcpClient\NetLib\libwchnet.a(tcp_out.o)
 .text.tcp_enqueue
                0x00000000000075b0      0x43c D:\opench-ch32v307\firmware\TcpClient\NetLib\libwchnet.a(tcp_out.o)
                0x00000000000075b0                tcp_enqueue
 .text.tcp_send_ctrl
                0x00000000000079ec       0x16 D:\opench-ch32v307\firmware\TcpClient\NetLib\libwchnet.a(tcp_out.o)
                0x00000000000079ec                tcp_send_ctrl
 .text.tcp_write
                0x0000000000007a02       0x30 D:\opench-ch32v307\firmware\TcpClient\NetLib\libwchnet.a(tcp_out.o)
                0x0000000000007a02                tcp_write
 .text.tcp_send_empty_ack
                0x0000000000007a32       0x6c D:\opench-ch32v307\firmware\TcpClient\NetLib\libwchnet.a(tcp_out.o)
                0x0000000000007a32                tcp_send_empty_ack
 .text.tcp_output
                0x0000000000007a9e      0x356 D:\opench-ch32v307\firmware\TcpClient\NetLib\libwchnet.a(tcp_out.o)
                0x0000000000007a9e                tcp_output
 .text.tcp_rst  0x0000000000007df4      0x104 D:\opench-ch32v307\firmware\TcpClient\NetLib\libwchnet.a(tcp_out.o)
                0x0000000000007df4                tcp_rst
 .text.tcp_rexmit_rto
                0x0000000000007ef8       0x34 D:\opench-ch32v307\firmware\TcpClient\NetLib\libwchnet.a(tcp_out.o)
                0x0000000000007ef8                tcp_rexmit_rto
 .text.tcp_rexmit
                0x0000000000007f2c       0x78 D:\opench-ch32v307\firmware\TcpClient\NetLib\libwchnet.a(tcp_out.o)
                0x0000000000007f2c                tcp_rexmit
 .text.tcp_rexmit_fast
                0x0000000000007fa4       0x5e D:\opench-ch32v307\firmware\TcpClient\NetLib\libwchnet.a(tcp_out.o)
                0x0000000000007fa4                tcp_rexmit_fast
 .text.tcp_keepalive
                0x0000000000008002       0x5e D:\opench-ch32v307\firmware\TcpClient\NetLib\libwchnet.a(tcp_out.o)
                0x0000000000008002                tcp_keepalive
 .text.tcp_zero_window_probe
                0x0000000000008060       0xd0 D:\opench-ch32v307\firmware\TcpClient\NetLib\libwchnet.a(tcp_out.o)
                0x0000000000008060                tcp_zero_window_probe
 .text.udp_input
                0x0000000000008130      0x23a D:\opench-ch32v307\firmware\TcpClient\NetLib\libwchnet.a(udp.o)
                0x0000000000008130                udp_input
 .text.udp_bind
                0x000000000000836a       0x9a D:\opench-ch32v307\firmware\TcpClient\NetLib\libwchnet.a(udp.o)
                0x000000000000836a                udp_bind
 .text.udp_sendto_if
                0x0000000000008404       0xd8 D:\opench-ch32v307\firmware\TcpClient\NetLib\libwchnet.a(udp.o)
                0x0000000000008404                udp_sendto_if
 .text.udp_sendto
                0x00000000000084dc       0x2e D:\opench-ch32v307\firmware\TcpClient\NetLib\libwchnet.a(udp.o)
                0x00000000000084dc                udp_sendto
 .text.udp_send
                0x000000000000850a       0x12 D:\opench-ch32v307\firmware\TcpClient\NetLib\libwchnet.a(udp.o)
                0x000000000000850a                udp_send
 .text.udp_connect
                0x000000000000851c       0x7e D:\opench-ch32v307\firmware\TcpClient\NetLib\libwchnet.a(udp.o)
                0x000000000000851c                udp_connect
 .text.udp_recv
                0x000000000000859a        0x6 D:\opench-ch32v307\firmware\TcpClient\NetLib\libwchnet.a(udp.o)
                0x000000000000859a                udp_recv
 .text.udp_new  0x00000000000085a0       0x24 D:\opench-ch32v307\firmware\TcpClient\NetLib\libwchnet.a(udp.o)
                0x00000000000085a0                udp_new
 .text.IPCheckParaInit
                0x00000000000085c4       0x1a D:\opench-ch32v307\firmware\TcpClient\NetLib\libwchnet.a(ipcheck.o)
                0x00000000000085c4                IPCheckParaInit
 .text.SelIPARPSend
                0x00000000000085de       0x34 D:\opench-ch32v307\firmware\TcpClient\NetLib\libwchnet.a(ipcheck.o)
                0x00000000000085de                SelIPARPSend
 .text.IPCheckTmr
                0x0000000000008612       0x3e D:\opench-ch32v307\firmware\TcpClient\NetLib\libwchnet.a(ipcheck.o)
                0x0000000000008612                IPCheckTmr
 .text.ArpCheck
                0x0000000000008650       0x24 D:\opench-ch32v307\firmware\TcpClient\NetLib\libwchnet.a(ipcheck.o)
                0x0000000000008650                ArpCheck
 .text.IPConflictHandle
                0x0000000000008674       0x26 D:\opench-ch32v307\firmware\TcpClient\NetLib\libwchnet.a(ipcheck.o)
                0x0000000000008674                IPConflictHandle
 .text.dhcp_set_state
                0x000000000000869a        0xe D:\opench-ch32v307\firmware\TcpClient\NetLib\libwchnet.a(wchnet_dhcp.o)
 .text.dhcp_option
                0x00000000000086a8       0x20 D:\opench-ch32v307\firmware\TcpClient\NetLib\libwchnet.a(wchnet_dhcp.o)
 .text.dhcp_option_byte
                0x00000000000086c8       0x12 D:\opench-ch32v307\firmware\TcpClient\NetLib\libwchnet.a(wchnet_dhcp.o)
 .text.dhcp_option_long
                0x00000000000086da       0x48 D:\opench-ch32v307\firmware\TcpClient\NetLib\libwchnet.a(wchnet_dhcp.o)
 .text.dhcp_option_trailer
                0x0000000000008722       0x34 D:\opench-ch32v307\firmware\TcpClient\NetLib\libwchnet.a(wchnet_dhcp.o)
 .text.dhcp_create_request
                0x0000000000008756      0x17e D:\opench-ch32v307\firmware\TcpClient\NetLib\libwchnet.a(wchnet_dhcp.o)
 .text.dhcp_delete_request
                0x00000000000088d4       0x20 D:\opench-ch32v307\firmware\TcpClient\NetLib\libwchnet.a(wchnet_dhcp.o)
 .text.dhcp_arp_reply
                0x00000000000088f4      0x184 D:\opench-ch32v307\firmware\TcpClient\NetLib\libwchnet.a(wchnet_dhcp.o)
                0x00000000000088f4                dhcp_arp_reply
 .text.icmp_send_response.isra.0
                0x0000000000008a78       0x76 D:\opench-ch32v307\firmware\TcpClient\NetLib\libwchnet.a(icmp.o)
 .text.icmp_input
                0x0000000000008aee      0x250 D:\opench-ch32v307\firmware\TcpClient\NetLib\libwchnet.a(icmp.o)
                0x0000000000008aee                icmp_input
 .text.icmp_dest_unreach
                0x0000000000008d3e       0x14 D:\opench-ch32v307\firmware\TcpClient\NetLib\libwchnet.a(icmp.o)
                0x0000000000008d3e                icmp_dest_unreach
 .text.icmp_time_exceeded
                0x0000000000008d52       0x14 D:\opench-ch32v307\firmware\TcpClient\NetLib\libwchnet.a(icmp.o)
                0x0000000000008d52                icmp_time_exceeded
 .text.lwip_standard_chksum
                0x0000000000008d66       0x7e D:\opench-ch32v307\firmware\TcpClient\NetLib\libwchnet.a(inet_chksum.o)
 .text.inet_chksum_pseudo
                0x0000000000008de4       0xf8 D:\opench-ch32v307\firmware\TcpClient\NetLib\libwchnet.a(inet_chksum.o)
                0x0000000000008de4                inet_chksum_pseudo
 .text.inet_chksum
                0x0000000000008edc       0x14 D:\opench-ch32v307\firmware\TcpClient\NetLib\libwchnet.a(inet_chksum.o)
                0x0000000000008edc                inet_chksum
 .text.inet_chksum_pbuf
                0x0000000000008ef0       0x6a D:\opench-ch32v307\firmware\TcpClient\NetLib\libwchnet.a(inet_chksum.o)
                0x0000000000008ef0                inet_chksum_pbuf
 .text.printchar
                0x0000000000008f5a       0x4c d:/mounriver/mounriver_studio/toolchain/risc-v embedded gcc/bin/../lib/gcc/riscv-none-embed/8.2.0/../../../../riscv-none-embed/lib/rv32imac/ilp32\libprintf.a(wchprintf.o)
                0x0000000000008f5a                printchar
 .text.prints   0x0000000000008fa6       0xe0 d:/mounriver/mounriver_studio/toolchain/risc-v embedded gcc/bin/../lib/gcc/riscv-none-embed/8.2.0/../../../../riscv-none-embed/lib/rv32imac/ilp32\libprintf.a(wchprintf.o)
                0x0000000000008fa6                prints
 .text.printInt
                0x0000000000009086       0xf4 d:/mounriver/mounriver_studio/toolchain/risc-v embedded gcc/bin/../lib/gcc/riscv-none-embed/8.2.0/../../../../riscv-none-embed/lib/rv32imac/ilp32\libprintf.a(wchprintf.o)
                0x0000000000009086                printInt
 .text.printLongLongInt
                0x000000000000917a        0x4 d:/mounriver/mounriver_studio/toolchain/risc-v embedded gcc/bin/../lib/gcc/riscv-none-embed/8.2.0/../../../../riscv-none-embed/lib/rv32imac/ilp32\libprintf.a(wchprintf.o)
                0x000000000000917a                printLongLongInt
 .text.printDouble
                0x000000000000917e        0x4 d:/mounriver/mounriver_studio/toolchain/risc-v embedded gcc/bin/../lib/gcc/riscv-none-embed/8.2.0/../../../../riscv-none-embed/lib/rv32imac/ilp32\libprintf.a(wchprintf.o)
                0x000000000000917e                printDouble
 .text.print    0x0000000000009182      0x322 d:/mounriver/mounriver_studio/toolchain/risc-v embedded gcc/bin/../lib/gcc/riscv-none-embed/8.2.0/../../../../riscv-none-embed/lib/rv32imac/ilp32\libprintf.a(wchprintf.o)
                0x0000000000009182                print
 .text.printf   0x00000000000094a4       0x24 d:/mounriver/mounriver_studio/toolchain/risc-v embedded gcc/bin/../lib/gcc/riscv-none-embed/8.2.0/../../../../riscv-none-embed/lib/rv32imac/ilp32\libprintf.a(wchprintf.o)
                0x00000000000094a4                printf
 .text.puts     0x00000000000094c8       0x54 d:/mounriver/mounriver_studio/toolchain/risc-v embedded gcc/bin/../lib/gcc/riscv-none-embed/8.2.0/../../../../riscv-none-embed/lib/rv32imac/ilp32\libprintf.a(wchprintf.o)
                0x00000000000094c8                puts
 .text.memcpy   0x000000000000951c       0xb6 d:/mounriver/mounriver_studio/toolchain/risc-v embedded gcc/bin/../lib/gcc/riscv-none-embed/8.2.0/../../../../riscv-none-embed/lib/rv32imac/ilp32\libg_nano.a(lib_a-memcpy.o)
                0x000000000000951c                memcpy
 .text.strlen   0x00000000000095d2       0x12 d:/mounriver/mounriver_studio/toolchain/risc-v embedded gcc/bin/../lib/gcc/riscv-none-embed/8.2.0/../../../../riscv-none-embed/lib/rv32imac/ilp32\libg_nano.a(lib_a-strlen.o)
                0x00000000000095d2                strlen
 .text.strncmp  0x00000000000095e4       0x2c d:/mounriver/mounriver_studio/toolchain/risc-v embedded gcc/bin/../lib/gcc/riscv-none-embed/8.2.0/../../../../riscv-none-embed/lib/rv32imac/ilp32\libg_nano.a(lib_a-strncmp.o)
                0x00000000000095e4                strncmp
 .text._vsnprintf_r
                0x0000000000009610       0x5e d:/mounriver/mounriver_studio/toolchain/risc-v embedded gcc/bin/../lib/gcc/riscv-none-embed/8.2.0/../../../../riscv-none-embed/lib/rv32imac/ilp32\libg_nano.a(lib_a-vsnprintf.o)
                0x0000000000009610                _vsniprintf_r
                0x0000000000009610                _vsnprintf_r
 .text.vsnprintf
                0x000000000000966e       0x12 d:/mounriver/mounriver_studio/toolchain/risc-v embedded gcc/bin/../lib/gcc/riscv-none-embed/8.2.0/../../../../riscv-none-embed/lib/rv32imac/ilp32\libg_nano.a(lib_a-vsnprintf.o)
                0x000000000000966e                vsniprintf
                0x000000000000966e                vsnprintf
 .text.__ssputs_r
                0x0000000000009680       0xea d:/mounriver/mounriver_studio/toolchain/risc-v embedded gcc/bin/../lib/gcc/riscv-none-embed/8.2.0/../../../../riscv-none-embed/lib/rv32imac/ilp32\libg_nano.a(lib_a-nano-svfprintf.o)
                0x0000000000009680                __ssputs_r
 .text._svfprintf_r
                0x000000000000976a      0x278 d:/mounriver/mounriver_studio/toolchain/risc-v embedded gcc/bin/../lib/gcc/riscv-none-embed/8.2.0/../../../../riscv-none-embed/lib/rv32imac/ilp32\libg_nano.a(lib_a-nano-svfprintf.o)
                0x000000000000976a                _svfiprintf_r
                0x000000000000976a                _svfprintf_r
 .text._printf_common
                0x00000000000099e2      0x10c d:/mounriver/mounriver_studio/toolchain/risc-v embedded gcc/bin/../lib/gcc/riscv-none-embed/8.2.0/../../../../riscv-none-embed/lib/rv32imac/ilp32\libg_nano.a(lib_a-nano-vfprintf_i.o)
                0x00000000000099e2                _printf_common
 .text._printf_i
                0x0000000000009aee      0x2aa d:/mounriver/mounriver_studio/toolchain/risc-v embedded gcc/bin/../lib/gcc/riscv-none-embed/8.2.0/../../../../riscv-none-embed/lib/rv32imac/ilp32\libg_nano.a(lib_a-nano-vfprintf_i.o)
                0x0000000000009aee                _printf_i
 .text.memchr   0x0000000000009d98       0x1a d:/mounriver/mounriver_studio/toolchain/risc-v embedded gcc/bin/../lib/gcc/riscv-none-embed/8.2.0/../../../../riscv-none-embed/lib/rv32imac/ilp32\libg_nano.a(lib_a-memchr.o)
                0x0000000000009d98                memchr
 .text.memmove  0x0000000000009db2       0x4a d:/mounriver/mounriver_studio/toolchain/risc-v embedded gcc/bin/../lib/gcc/riscv-none-embed/8.2.0/../../../../riscv-none-embed/lib/rv32imac/ilp32\libg_nano.a(lib_a-memmove.o)
                0x0000000000009db2                memmove
 .text._free_r  0x0000000000009dfc       0xa4 d:/mounriver/mounriver_studio/toolchain/risc-v embedded gcc/bin/../lib/gcc/riscv-none-embed/8.2.0/../../../../riscv-none-embed/lib/rv32imac/ilp32\libg_nano.a(lib_a-nano-freer.o)
                0x0000000000009dfc                _free_r
 .text._malloc_r
                0x0000000000009ea0       0xce d:/mounriver/mounriver_studio/toolchain/risc-v embedded gcc/bin/../lib/gcc/riscv-none-embed/8.2.0/../../../../riscv-none-embed/lib/rv32imac/ilp32\libg_nano.a(lib_a-nano-mallocr.o)
                0x0000000000009ea0                _malloc_r
 .text._realloc_r
                0x0000000000009f6e       0x58 d:/mounriver/mounriver_studio/toolchain/risc-v embedded gcc/bin/../lib/gcc/riscv-none-embed/8.2.0/../../../../riscv-none-embed/lib/rv32imac/ilp32\libg_nano.a(lib_a-nano-reallocr.o)
                0x0000000000009f6e                _realloc_r
 .text._sbrk_r  0x0000000000009fc6       0x30 d:/mounriver/mounriver_studio/toolchain/risc-v embedded gcc/bin/../lib/gcc/riscv-none-embed/8.2.0/../../../../riscv-none-embed/lib/rv32imac/ilp32\libg_nano.a(lib_a-sbrkr.o)
                0x0000000000009fc6                _sbrk_r
 .text.__malloc_lock
                0x0000000000009ff6        0x2 d:/mounriver/mounriver_studio/toolchain/risc-v embedded gcc/bin/../lib/gcc/riscv-none-embed/8.2.0/../../../../riscv-none-embed/lib/rv32imac/ilp32\libg_nano.a(lib_a-mlock.o)
                0x0000000000009ff6                __malloc_lock
 .text.__malloc_unlock
                0x0000000000009ff8        0x2 d:/mounriver/mounriver_studio/toolchain/risc-v embedded gcc/bin/../lib/gcc/riscv-none-embed/8.2.0/../../../../riscv-none-embed/lib/rv32imac/ilp32\libg_nano.a(lib_a-mlock.o)
                0x0000000000009ff8                __malloc_unlock
 .text._malloc_usable_size_r
                0x0000000000009ffa       0x14 d:/mounriver/mounriver_studio/toolchain/risc-v embedded gcc/bin/../lib/gcc/riscv-none-embed/8.2.0/../../../../riscv-none-embed/lib/rv32imac/ilp32\libg_nano.a(lib_a-nano-msizer.o)
                0x0000000000009ffa                _malloc_usable_size_r
 .text._sbrk    0x000000000000a00e       0x24 d:/mounriver/mounriver_studio/toolchain/risc-v embedded gcc/bin/../lib/gcc/riscv-none-embed/8.2.0/../../../../riscv-none-embed/lib/rv32imac/ilp32\libnosys.a(sbrk.o)
                0x000000000000a00e                _sbrk
 *(.rodata)
 *(.rodata*)
 *fill*         0x000000000000a032        0x2 
 .rodata.HardFault_Handler.str1.4
                0x000000000000a034       0x42 ./User/ch32v30x_it.o
 *fill*         0x000000000000a076        0x2 
 .rodata.asc2_1608
                0x000000000000a078      0x5e0 ./User/lcd.o
                0x000000000000a078                asc2_1608
 .rodata.asc2_2412
                0x000000000000a658     0x11a0 ./User/lcd.o
                0x000000000000a658                asc2_2412
 .rodata.asc2_3216
                0x000000000000b7f8     0x1780 ./User/lcd.o
                0x000000000000b7f8                asc2_3216
 .rodata.lcd_init.str1.4
                0x000000000000cf78        0xa ./User/lcd.o
 *fill*         0x000000000000cf82        0x2 
 .rodata.lcd_show_char.str1.4
                0x000000000000cf84       0x4a ./User/lcd.o
 *fill*         0x000000000000cfce        0x2 
 .rodata.lcd_show_image.str1.4
                0x000000000000cfd0        0x6 ./User/lcd.o
 *fill*         0x000000000000cfd6        0x2 
 .rodata.lcd_show_string.str1.4
                0x000000000000cfd8       0x1e ./User/lcd.o
 *fill*         0x000000000000cff6        0x2 
 .rodata.MemNum
                0x000000000000cff8       0x10 ./User/main.o
                0x000000000000cff8                MemNum
 .rodata.MemSize
                0x000000000000d008       0x10 ./User/main.o
                0x000000000000d008                MemSize
 .rodata.WCHNET_CreatTcpSocket.str1.4
                0x000000000000d018       0x24 ./User/main.o
 .rodata.WCHNET_HandleGlobalInt.str1.4
                0x000000000000d03c       0x3e ./User/main.o
 *fill*         0x000000000000d07a        0x2 
 .rodata.WCHNET_HandleSockInt.str1.4
                0x000000000000d07c       0xd0 ./User/main.o
 .rodata.gImage_centigrade
                0x000000000000d14c      0x800 ./User/main.o
                0x000000000000d14c                gImage_centigrade
 .rodata.gImage_cloud
                0x000000000000d94c     0x3200 ./User/main.o
                0x000000000000d94c                gImage_cloud
 .rodata.gImage_rainy
                0x0000000000010b4c     0x3200 ./User/main.o
                0x0000000000010b4c                gImage_rainy
 .rodata.gImage_sunny
                0x0000000000013d4c     0x3200 ./User/main.o
                0x0000000000013d4c                gImage_sunny
 .rodata.mStopIfError.str1.4
                0x0000000000016f4c        0xe ./User/main.o
 *fill*         0x0000000000016f5a        0x2 
 .rodata.main.str1.4
                0x0000000000016f5c       0x68 ./User/main.o
 .rodata.str1.4
                0x0000000000016fc4        0x6 ./User/main.o
 *fill*         0x0000000000016fca        0x2 
 .rodata.ErrTable
                0x0000000000016fcc       0x10 D:\opench-ch32v307\firmware\TcpClient\NetLib\libwchnet.a(socket.o)
                0x0000000000016fcc                ErrTable
 .rodata.WCHNET_ETHIsr.str1.4
                0x0000000000016fdc        0xa D:\opench-ch32v307\firmware\TcpClient\NetLib\libwchnet.a(socket.o)
 *fill*         0x0000000000016fe6        0x2 
 .rodata.etharp_output.str1.4
                0x0000000000016fe8       0x1f D:\opench-ch32v307\firmware\TcpClient\NetLib\libwchnet.a(etharp.o)
 *fill*         0x0000000000017007        0x1 
 .rodata.tcp_close
                0x0000000000017008       0x20 D:\opench-ch32v307\firmware\TcpClient\NetLib\libwchnet.a(tcp.o)
 .rodata.tcp_backoff
                0x0000000000017028       0x14 D:\opench-ch32v307\firmware\TcpClient\NetLib\libwchnet.a(tcp.o)
                0x0000000000017028                tcp_backoff
 .rodata.tcp_input
                0x000000000001703c       0x20 D:\opench-ch32v307\firmware\TcpClient\NetLib\libwchnet.a(tcp_in.o)
 .rodata.print.str1.4
                0x000000000001705c        0x7 d:/mounriver/mounriver_studio/toolchain/risc-v embedded gcc/bin/../lib/gcc/riscv-none-embed/8.2.0/../../../../riscv-none-embed/lib/rv32imac/ilp32\libprintf.a(wchprintf.o)
 *fill*         0x0000000000017063        0x1 
 .rodata._svfprintf_r.str1.4
                0x0000000000017064       0x13 d:/mounriver/mounriver_studio/toolchain/risc-v embedded gcc/bin/../lib/gcc/riscv-none-embed/8.2.0/../../../../riscv-none-embed/lib/rv32imac/ilp32\libg_nano.a(lib_a-nano-svfprintf.o)
 *fill*         0x0000000000017077        0x1 
 .rodata._printf_i.str1.4
                0x0000000000017078       0x28 d:/mounriver/mounriver_studio/toolchain/risc-v embedded gcc/bin/../lib/gcc/riscv-none-embed/8.2.0/../../../../riscv-none-embed/lib/rv32imac/ilp32\libg_nano.a(lib_a-nano-vfprintf_i.o)
                                         0x25 (size before relaxing)
 *(.glue_7)
 *(.glue_7t)
 *(.gnu.linkonce.t.*)
                0x00000000000170a0                . = ALIGN (0x4)

.rela.dyn       0x00000000000170a0        0x0
 .rela.text.HardFault_Handler
                0x00000000000170a0        0x0 ./User/IIC.o
 .rela.text.lcd_init
                0x00000000000170a0        0x0 ./User/IIC.o
 .rela.text.lcd_show_char
                0x00000000000170a0        0x0 ./User/IIC.o
 .rela.text.lcd_show_string
                0x00000000000170a0        0x0 ./User/IIC.o
 .rela.text.lcd_show_image
                0x00000000000170a0        0x0 ./User/IIC.o
 .rela.text.mStopIfError
                0x00000000000170a0        0x0 ./User/IIC.o
 .rela.text.WCHNET_CreatTcpSocket
                0x00000000000170a0        0x0 ./User/IIC.o
 .rela.text.WCHNET_HandleSockInt
                0x00000000000170a0        0x0 ./User/IIC.o
 .rela.text.startup.main
                0x00000000000170a0        0x0 ./User/IIC.o
 .rela.init     0x00000000000170a0        0x0 ./User/IIC.o
 .rela.vector   0x00000000000170a0        0x0 ./User/IIC.o
 .rela.text.handle_reset
                0x00000000000170a0        0x0 ./User/IIC.o
 .rela.text.ETH_DMATxDescChainInit
                0x00000000000170a0        0x0 ./User/IIC.o
 .rela.text.ETH_DMARxDescChainInit
                0x00000000000170a0        0x0 ./User/IIC.o
 .rela.text.ETH_GetCurrentTxBufferAddress
                0x00000000000170a0        0x0 ./User/IIC.o
 .rela.text.ETH_RxPkt_Handle
                0x00000000000170a0        0x0 ./User/IIC.o
 .rela.text.ETH_TxPkt_ChainMode
                0x00000000000170a0        0x0 ./User/IIC.o
 .rela.text.WCHSocketInit
                0x00000000000170a0        0x0 ./User/IIC.o
 .rela.text.WCHNET_Init
                0x00000000000170a0        0x0 ./User/IIC.o
 .rela.text.WCHFindCorrectTCBPcb
                0x00000000000170a0        0x0 ./User/IIC.o
 .rela.text.WCHNET_SocketCreat
                0x00000000000170a0        0x0 ./User/IIC.o
 .rela.text.WCHNET_SocketRecv
                0x00000000000170a0        0x0 ./User/IIC.o
 .rela.text.WCHNET_SocketRecvLen
                0x00000000000170a0        0x0 ./User/IIC.o
 .rela.text.SocketIPRawSend
                0x00000000000170a0        0x0 ./User/IIC.o
 .rela.text.SocketUdpSend
                0x00000000000170a0        0x0 ./User/IIC.o
 .rela.text.LwipRemoveTcpPcb
                0x00000000000170a0        0x0 ./User/IIC.o
 .rela.text.WCHNET_QueryGlobalInt
                0x00000000000170a0        0x0 ./User/IIC.o
 .rela.text.WCHNET_GetSocketInt
                0x00000000000170a0        0x0 ./User/IIC.o
 .rela.text.CH563IPSetSocketRecvInit
                0x00000000000170a0        0x0 ./User/IIC.o
 .rela.text.SocketTcpSend
                0x00000000000170a0        0x0 ./User/IIC.o
 .rela.text.WCHNET_SocketSend
                0x00000000000170a0        0x0 ./User/IIC.o
 .rela.text.WCHNET_SocketConnect
                0x00000000000170a0        0x0 ./User/IIC.o
 .rela.sdata.arp_table
                0x00000000000170a0        0x0 ./User/IIC.o
 .rela.text.low_level_output
                0x00000000000170a0        0x0 ./User/IIC.o
 .rela.text.low_level_init
                0x00000000000170a0        0x0 ./User/IIC.o
 .rela.text.mem_init
                0x00000000000170a0        0x0 ./User/IIC.o
 .rela.text.memp_init
                0x00000000000170a0        0x0 ./User/IIC.o
 .rela.text.prints
                0x00000000000170a0        0x0 ./User/IIC.o
 .rela.text.printInt
                0x00000000000170a0        0x0 ./User/IIC.o
 .rela.text.print
                0x00000000000170a0        0x0 ./User/IIC.o
 .rela.text.printf
                0x00000000000170a0        0x0 ./User/IIC.o
 .rela.data.impure_data
                0x00000000000170a0        0x0 ./User/IIC.o
 .rela.text._svfprintf_r
                0x00000000000170a0        0x0 ./User/IIC.o
 .rela.text._sbrk_r
                0x00000000000170a0        0x0 ./User/IIC.o
 .rela.text._sbrk
                0x00000000000170a0        0x0 ./User/IIC.o

.fini           0x00000000000170a0        0x0
 *(SORT_NONE(.fini))
                0x00000000000170a0                . = ALIGN (0x4)
                [!provide]                        PROVIDE (_etext = .)
                [!provide]                        PROVIDE (_eitcm = .)

.preinit_array  0x00000000000170a0        0x0
                [!provide]                        PROVIDE (__preinit_array_start = .)
 *(.preinit_array)
                [!provide]                        PROVIDE (__preinit_array_end = .)

.init_array     0x00000000000170a0        0x0
                [!provide]                        PROVIDE (__init_array_start = .)
 *(SORT_BY_INIT_PRIORITY(.init_array.*) SORT_BY_INIT_PRIORITY(.ctors.*))
 *(.init_array EXCLUDE_FILE(*crtend?.o *crtend.o *crtbegin?.o *crtbegin.o) .ctors)
                [!provide]                        PROVIDE (__init_array_end = .)

.fini_array     0x00000000000170a0        0x0
                [!provide]                        PROVIDE (__fini_array_start = .)
 *(SORT_BY_INIT_PRIORITY(.fini_array.*) SORT_BY_INIT_PRIORITY(.dtors.*))
 *(.fini_array EXCLUDE_FILE(*crtend?.o *crtend.o *crtbegin?.o *crtbegin.o) .dtors)
                [!provide]                        PROVIDE (__fini_array_end = .)

.ctors
 *crtbegin.o(.ctors)
 *crtbegin?.o(.ctors)
 *(EXCLUDE_FILE(*crtend?.o *crtend.o) .ctors)
 *(SORT_BY_NAME(.ctors.*))
 *(.ctors)

.dtors
 *crtbegin.o(.dtors)
 *crtbegin?.o(.dtors)
 *(EXCLUDE_FILE(*crtend?.o *crtend.o) .dtors)
 *(SORT_BY_NAME(.dtors.*))
 *(.dtors)

.dalign         0x0000000020000000        0x0 load address 0x00000000000170a0
                0x0000000020000000                . = ALIGN (0x4)
                0x0000000020000000                PROVIDE (_data_vma = .)

.dlalign        0x00000000000170a0        0x0
                0x00000000000170a0                . = ALIGN (0x4)
                0x00000000000170a0                PROVIDE (_data_lma = .)

.data           0x0000000020000000       0xd0 load address 0x00000000000170a0
 *(.gnu.linkonce.r.*)
 *(.data .data.*)
 .data.APBAHBPrescTable
                0x0000000020000000       0x10 ./Peripheral/src/ch32v30x_rcc.o
 .data.impure_data
                0x0000000020000010       0x60 d:/mounriver/mounriver_studio/toolchain/risc-v embedded gcc/bin/../lib/gcc/riscv-none-embed/8.2.0/../../../../riscv-none-embed/lib/rv32imac/ilp32\libg_nano.a(lib_a-impure.o)
 *(.gnu.linkonce.d.*)
                0x0000000020000070                . = ALIGN (0x8)
                0x0000000020000870                PROVIDE (__global_pointer$ = (. + 0x800))
 *(.sdata .sdata.*)
 .sdata.FORE_COLOR
                0x0000000020000070        0x2 ./User/lcd.o
                0x0000000020000070                FORE_COLOR
 *fill*         0x0000000020000072        0x2 
 .sdata.DESIP   0x0000000020000074        0x4 ./User/main.o
                0x0000000020000074                DESIP
 .sdata.GWIPAddr
                0x0000000020000078        0x4 ./User/main.o
                0x0000000020000078                GWIPAddr
 .sdata.IPAddr  0x000000002000007c        0x4 ./User/main.o
                0x000000002000007c                IPAddr
 .sdata.IPMask  0x0000000020000080        0x4 ./User/main.o
                0x0000000020000080                IPMask
 .sdata.Start   0x0000000020000084        0x4 ./User/main.o
                0x0000000020000084                Start
 .sdata.desport
                0x0000000020000088        0x2 ./User/main.o
                0x0000000020000088                desport
 .sdata.srcport
                0x000000002000008a        0x2 ./User/main.o
                0x000000002000008a                srcport
 .sdata.SystemCoreClock
                0x000000002000008c        0x4 ./User/system_ch32v30x.o
                0x000000002000008c                SystemCoreClock
 .sdata.ADCPrescTable
                0x0000000020000090        0x4 ./Peripheral/src/ch32v30x_rcc.o
 .sdata.arp_table
                0x0000000020000094        0x4 D:\opench-ch32v307\firmware\TcpClient\NetLib\libwchnet.a(etharp.o)
                0x0000000020000094                arp_table
 .sdata.memp_num
                0x0000000020000098        0x4 D:\opench-ch32v307\firmware\TcpClient\NetLib\libwchnet.a(memp.o)
                0x0000000020000098                memp_num
 .sdata.memp_sizes
                0x000000002000009c        0x4 D:\opench-ch32v307\firmware\TcpClient\NetLib\libwchnet.a(memp.o)
                0x000000002000009c                memp_sizes
 .sdata.iss.6791
                0x00000000200000a0        0x4 D:\opench-ch32v307\firmware\TcpClient\NetLib\libwchnet.a(tcp.o)
 .sdata.port.6623
                0x00000000200000a4        0x2 D:\opench-ch32v307\firmware\TcpClient\NetLib\libwchnet.a(tcp.o)
 *fill*         0x00000000200000a6        0x2 
 .sdata.xid.6638
                0x00000000200000a8        0x4 D:\opench-ch32v307\firmware\TcpClient\NetLib\libwchnet.a(wchnet_dhcp.o)
 .sdata._impure_ptr
                0x00000000200000ac        0x4 d:/mounriver/mounriver_studio/toolchain/risc-v embedded gcc/bin/../lib/gcc/riscv-none-embed/8.2.0/../../../../riscv-none-embed/lib/rv32imac/ilp32\libg_nano.a(lib_a-impure.o)
                0x00000000200000ac                _impure_ptr
 *(.sdata2.*)
 .sdata2.ethbroadcast
                0x00000000200000b0        0x6 D:\opench-ch32v307\firmware\TcpClient\NetLib\libwchnet.a(etharp.o)
                0x00000000200000b0                ethbroadcast
 *fill*         0x00000000200000b6        0x2 
 .sdata2.ethzero
                0x00000000200000b8        0x6 D:\opench-ch32v307\firmware\TcpClient\NetLib\libwchnet.a(etharp.o)
                0x00000000200000b8                ethzero
 *fill*         0x00000000200000be        0x2 
 .sdata2.ip_addr_any
                0x00000000200000c0        0x4 D:\opench-ch32v307\firmware\TcpClient\NetLib\libwchnet.a(ip_addr.o)
                0x00000000200000c0                ip_addr_any
 .sdata2.ip_addr_broadcast
                0x00000000200000c4        0x4 D:\opench-ch32v307\firmware\TcpClient\NetLib\libwchnet.a(ip_addr.o)
                0x00000000200000c4                ip_addr_broadcast
 .sdata2.tcp_persist_backoff
                0x00000000200000c8        0x7 D:\opench-ch32v307\firmware\TcpClient\NetLib\libwchnet.a(tcp.o)
                0x00000000200000c8                tcp_persist_backoff
 *(.gnu.linkonce.s.*)
                0x00000000200000d0                . = ALIGN (0x8)
 *fill*         0x00000000200000cf        0x1 
 *(.srodata.cst16)
 *(.srodata.cst8)
 *(.srodata.cst4)
 *(.srodata.cst2)
 *(.srodata .srodata.*)
                0x00000000200000d0                . = ALIGN (0x4)
                0x00000000200000d0                PROVIDE (_edata = .)

.bss            0x00000000200000d0     0xc3e0 load address 0x0000000000017170
                0x00000000200000d0                . = ALIGN (0x4)
                0x00000000200000d0                PROVIDE (_sbss = .)
 *(.sbss*)
 .sbss.BACK_COLOR
                0x00000000200000d0        0x2 ./User/lcd.o
                0x00000000200000d0                BACK_COLOR
 .sbss.connectStatus
                0x00000000200000d2        0x1 ./User/main.o
                0x00000000200000d2                connectStatus
 *fill*         0x00000000200000d3        0x1 
 .sbss.p_ms     0x00000000200000d4        0x2 ./Debug/debug.o
 .sbss.p_us     0x00000000200000d6        0x1 ./Debug/debug.o
 *fill*         0x00000000200000d7        0x1 
 .sbss.phydata  0x00000000200000d8        0x4 D:\opench-ch32v307\firmware\TcpClient\NetLib\libwchnet.a(socket.o)
                0x00000000200000d8                phydata
 .sbss.phydatatime
                0x00000000200000dc        0x4 D:\opench-ch32v307\firmware\TcpClient\NetLib\libwchnet.a(socket.o)
                0x00000000200000dc                phydatatime
 .sbss.tcppackt
                0x00000000200000e0        0x4 D:\opench-ch32v307\firmware\TcpClient\NetLib\libwchnet.a(socket.o)
                0x00000000200000e0                tcppackt
 .sbss.etharp_cached_entry
                0x00000000200000e4        0x1 D:\opench-ch32v307\firmware\TcpClient\NetLib\libwchnet.a(etharp.o)
 *fill*         0x00000000200000e5        0x3 
 .sbss.ARPTimer
                0x00000000200000e8        0x4 D:\opench-ch32v307\firmware\TcpClient\NetLib\libwchnet.a(ethernetif.o)
                0x00000000200000e8                ARPTimer
 .sbss.DHCPTestTimer
                0x00000000200000ec        0x4 D:\opench-ch32v307\firmware\TcpClient\NetLib\libwchnet.a(ethernetif.o)
                0x00000000200000ec                DHCPTestTimer
 .sbss.DHCPcoarseTimer
                0x00000000200000f0        0x4 D:\opench-ch32v307\firmware\TcpClient\NetLib\libwchnet.a(ethernetif.o)
                0x00000000200000f0                DHCPcoarseTimer
 .sbss.DHCPfineTimer
                0x00000000200000f4        0x4 D:\opench-ch32v307\firmware\TcpClient\NetLib\libwchnet.a(ethernetif.o)
                0x00000000200000f4                DHCPfineTimer
 .sbss.DNSTimer
                0x00000000200000f8        0x4 D:\opench-ch32v307\firmware\TcpClient\NetLib\libwchnet.a(ethernetif.o)
                0x00000000200000f8                DNSTimer
 .sbss.DataLED  0x00000000200000fc        0x1 D:\opench-ch32v307\firmware\TcpClient\NetLib\libwchnet.a(ethernetif.o)
                0x00000000200000fc                DataLED
 *fill*         0x00000000200000fd        0x3 
 .sbss.IPFragTimer
                0x0000000020000100        0x4 D:\opench-ch32v307\firmware\TcpClient\NetLib\libwchnet.a(ethernetif.o)
                0x0000000020000100                IPFragTimer
 .sbss.LocalTime
                0x0000000020000104        0x4 D:\opench-ch32v307\firmware\TcpClient\NetLib\libwchnet.a(ethernetif.o)
                0x0000000020000104                LocalTime
 .sbss.MacRevcNull
                0x0000000020000108        0x1 D:\opench-ch32v307\firmware\TcpClient\NetLib\libwchnet.a(ethernetif.o)
 *fill*         0x0000000020000109        0x3 
 .sbss.SuccessPackets
                0x000000002000010c        0x4 D:\opench-ch32v307\firmware\TcpClient\NetLib\libwchnet.a(ethernetif.o)
                0x000000002000010c                SuccessPackets
 .sbss.TCPTimer
                0x0000000020000110        0x4 D:\opench-ch32v307\firmware\TcpClient\NetLib\libwchnet.a(ethernetif.o)
                0x0000000020000110                TCPTimer
 .sbss.WCHGWIPAddr
                0x0000000020000114        0x4 D:\opench-ch32v307\firmware\TcpClient\NetLib\libwchnet.a(ethernetif.o)
                0x0000000020000114                WCHGWIPAddr
 .sbss.WCHIPAddr
                0x0000000020000118        0x4 D:\opench-ch32v307\firmware\TcpClient\NetLib\libwchnet.a(ethernetif.o)
                0x0000000020000118                WCHIPAddr
 .sbss.WCHIPMask
                0x000000002000011c        0x4 D:\opench-ch32v307\firmware\TcpClient\NetLib\libwchnet.a(ethernetif.o)
                0x000000002000011c                WCHIPMask
 .sbss.WCHMACAddr
                0x0000000020000120        0x4 D:\opench-ch32v307\firmware\TcpClient\NetLib\libwchnet.a(ethernetif.o)
                0x0000000020000120                WCHMACAddr
 .sbss.current_header
                0x0000000020000124        0x4 D:\opench-ch32v307\firmware\TcpClient\NetLib\libwchnet.a(ip.o)
                0x0000000020000124                current_header
 .sbss.current_netif
                0x0000000020000128        0x4 D:\opench-ch32v307\firmware\TcpClient\NetLib\libwchnet.a(ip.o)
                0x0000000020000128                current_netif
 .sbss.ip_id.6659
                0x000000002000012c        0x2 D:\opench-ch32v307\firmware\TcpClient\NetLib\libwchnet.a(ip.o)
 .sbss.ip_reass_pbufcount
                0x000000002000012e        0x2 D:\opench-ch32v307\firmware\TcpClient\NetLib\libwchnet.a(ip_frag.o)
 .sbss.reassdatagrams
                0x0000000020000130        0x4 D:\opench-ch32v307\firmware\TcpClient\NetLib\libwchnet.a(ip_frag.o)
 .sbss.lfree    0x0000000020000134        0x4 D:\opench-ch32v307\firmware\TcpClient\NetLib\libwchnet.a(mem.o)
 .sbss.ram      0x0000000020000138        0x4 D:\opench-ch32v307\firmware\TcpClient\NetLib\libwchnet.a(mem.o)
 .sbss.ram_end  0x000000002000013c        0x4 D:\opench-ch32v307\firmware\TcpClient\NetLib\libwchnet.a(mem.o)
 .sbss.netif_default
                0x0000000020000140        0x4 D:\opench-ch32v307\firmware\TcpClient\NetLib\libwchnet.a(netif.o)
                0x0000000020000140                netif_default
 .sbss.netif_list
                0x0000000020000144        0x4 D:\opench-ch32v307\firmware\TcpClient\NetLib\libwchnet.a(netif.o)
                0x0000000020000144                netif_list
 .sbss.netifnum.6387
                0x0000000020000148        0x1 D:\opench-ch32v307\firmware\TcpClient\NetLib\libwchnet.a(netif.o)
 *fill*         0x0000000020000149        0x3 
 .sbss.raw_pcbs
                0x000000002000014c        0x4 D:\opench-ch32v307\firmware\TcpClient\NetLib\libwchnet.a(raw.o)
 .sbss.tcp_active_pcbs
                0x0000000020000150        0x4 D:\opench-ch32v307\firmware\TcpClient\NetLib\libwchnet.a(tcp.o)
                0x0000000020000150                tcp_active_pcbs
 .sbss.tcp_bound_pcbs
                0x0000000020000154        0x4 D:\opench-ch32v307\firmware\TcpClient\NetLib\libwchnet.a(tcp.o)
                0x0000000020000154                tcp_bound_pcbs
 .sbss.tcp_listen_pcbs
                0x0000000020000158        0x4 D:\opench-ch32v307\firmware\TcpClient\NetLib\libwchnet.a(tcp.o)
                0x0000000020000158                tcp_listen_pcbs
 .sbss.tcp_ticks
                0x000000002000015c        0x4 D:\opench-ch32v307\firmware\TcpClient\NetLib\libwchnet.a(tcp.o)
                0x000000002000015c                tcp_ticks
 .sbss.tcp_timer
                0x0000000020000160        0x1 D:\opench-ch32v307\firmware\TcpClient\NetLib\libwchnet.a(tcp.o)
 *fill*         0x0000000020000161        0x3 
 .sbss.tcp_tmp_pcb
                0x0000000020000164        0x4 D:\opench-ch32v307\firmware\TcpClient\NetLib\libwchnet.a(tcp.o)
                0x0000000020000164                tcp_tmp_pcb
 .sbss.tcp_tw_pcbs
                0x0000000020000168        0x4 D:\opench-ch32v307\firmware\TcpClient\NetLib\libwchnet.a(tcp.o)
                0x0000000020000168                tcp_tw_pcbs
 .sbss.ackno    0x000000002000016c        0x4 D:\opench-ch32v307\firmware\TcpClient\NetLib\libwchnet.a(tcp_in.o)
 .sbss.flags    0x0000000020000170        0x1 D:\opench-ch32v307\firmware\TcpClient\NetLib\libwchnet.a(tcp_in.o)
 *fill*         0x0000000020000171        0x3 
 .sbss.iphdr    0x0000000020000174        0x4 D:\opench-ch32v307\firmware\TcpClient\NetLib\libwchnet.a(tcp_in.o)
 .sbss.recv_data
                0x0000000020000178        0x4 D:\opench-ch32v307\firmware\TcpClient\NetLib\libwchnet.a(tcp_in.o)
 .sbss.recv_flags
                0x000000002000017c        0x1 D:\opench-ch32v307\firmware\TcpClient\NetLib\libwchnet.a(tcp_in.o)
 *fill*         0x000000002000017d        0x3 
 .sbss.seqno    0x0000000020000180        0x4 D:\opench-ch32v307\firmware\TcpClient\NetLib\libwchnet.a(tcp_in.o)
 .sbss.tcp_input_pcb
                0x0000000020000184        0x4 D:\opench-ch32v307\firmware\TcpClient\NetLib\libwchnet.a(tcp_in.o)
                0x0000000020000184                tcp_input_pcb
 .sbss.tcphdr   0x0000000020000188        0x4 D:\opench-ch32v307\firmware\TcpClient\NetLib\libwchnet.a(tcp_in.o)
 .sbss.tcplen   0x000000002000018c        0x2 D:\opench-ch32v307\firmware\TcpClient\NetLib\libwchnet.a(tcp_in.o)
 *fill*         0x000000002000018e        0x2 
 .sbss.udp_pcbs
                0x0000000020000190        0x4 D:\opench-ch32v307\firmware\TcpClient\NetLib\libwchnet.a(udp.o)
                0x0000000020000190                udp_pcbs
 .sbss.ArpCheckTime
                0x0000000020000194        0x4 D:\opench-ch32v307\firmware\TcpClient\NetLib\libwchnet.a(ipcheck.o)
                0x0000000020000194                ArpCheckTime
 .sbss.__malloc_free_list
                0x0000000020000198        0x4 d:/mounriver/mounriver_studio/toolchain/risc-v embedded gcc/bin/../lib/gcc/riscv-none-embed/8.2.0/../../../../riscv-none-embed/lib/rv32imac/ilp32\libg_nano.a(lib_a-nano-mallocr.o)
                0x0000000020000198                __malloc_free_list
 .sbss.__malloc_sbrk_start
                0x000000002000019c        0x4 d:/mounriver/mounriver_studio/toolchain/risc-v embedded gcc/bin/../lib/gcc/riscv-none-embed/8.2.0/../../../../riscv-none-embed/lib/rv32imac/ilp32\libg_nano.a(lib_a-nano-mallocr.o)
                0x000000002000019c                __malloc_sbrk_start
 .sbss.heap_end.1518
                0x00000000200001a0        0x4 d:/mounriver/mounriver_studio/toolchain/risc-v embedded gcc/bin/../lib/gcc/riscv-none-embed/8.2.0/../../../../riscv-none-embed/lib/rv32imac/ilp32\libnosys.a(sbrk.o)
 *(.gnu.linkonce.sb.*)
 *(.bss*)
 .bss.KeepLiveCfg
                0x00000000200001a4        0xc D:\opench-ch32v307\firmware\TcpClient\NetLib\libwchnet.a(socket.o)
                0x00000000200001a4                KeepLiveCfg
 .bss.NetInf    0x00000000200001b0       0x44 D:\opench-ch32v307\firmware\TcpClient\NetLib\libwchnet.a(socket.o)
                0x00000000200001b0                NetInf
 .bss.WCHCfg    0x00000000200001f4       0x14 D:\opench-ch32v307\firmware\TcpClient\NetLib\libwchnet.a(socket.o)
                0x00000000200001f4                WCHCfg
 .bss.DHCPCtrl  0x0000000020000208       0x18 D:\opench-ch32v307\firmware\TcpClient\NetLib\libwchnet.a(ethernetif.o)
                0x0000000020000208                DHCPCtrl
 .bss.RxCtrl    0x0000000020000220       0xd0 D:\opench-ch32v307\firmware\TcpClient\NetLib\libwchnet.a(ethernetif.o)
                0x0000000020000220                RxCtrl
 .bss.TXCtrl    0x00000000200002f0       0x14 D:\opench-ch32v307\firmware\TcpClient\NetLib\libwchnet.a(ethernetif.o)
                0x00000000200002f0                TXCtrl
 .bss.WCHNetIf  0x0000000020000304       0x38 D:\opench-ch32v307\firmware\TcpClient\NetLib\libwchnet.a(ethernetif.o)
                0x0000000020000304                WCHNetIf
 .bss.dhcp_host_name
                0x000000002000033c       0x32 D:\opench-ch32v307\firmware\TcpClient\NetLib\libwchnet.a(ethernetif.o)
                0x000000002000033c                dhcp_host_name
 *fill*         0x000000002000036e        0x2 
 .bss.memp_tab  0x0000000020000370       0x20 D:\opench-ch32v307\firmware\TcpClient\NetLib\libwchnet.a(memp.o)
 .bss.inseg     0x0000000020000390       0x14 D:\opench-ch32v307\firmware\TcpClient\NetLib\libwchnet.a(tcp_in.o)
 .bss.SelARP    0x00000000200003a4        0xc D:\opench-ch32v307\firmware\TcpClient\NetLib\libwchnet.a(ipcheck.o)
                0x00000000200003a4                SelARP
 .bss.DNSInf    0x00000000200003b0       0x14 D:\opench-ch32v307\firmware\TcpClient\NetLib\libwchnet.a(wchnet_dns.o)
                0x00000000200003b0                DNSInf
 *(.gnu.linkonce.b.*)
 *(COMMON*)
 COMMON         0x00000000200003c4     0xc0d8 ./User/main.o
                0x00000000200003c4                MACAddr
                0x00000000200003cc                MACRxBuf
                0x0000000020003f2c                SocketId
                0x0000000020003f30                MyBuf
                0x0000000020004570                Mem_Heap_Memory
                0x0000000020005784                Memp_Memory
                0x00000000200082d8                DMATxDscrTab
                0x00000000200082f8                DMARxDscrTab
                0x0000000020008398                MACTxBuf
                0x0000000020008f78                Mem_ArpTable
                0x00000000200090b8                SocketInf
                0x0000000020009298                SocketRecvBuf
                0x000000002000c498                len
 COMMON         0x000000002000c49c       0x10 ./Peripheral/src/ch32v30x_eth.o
                0x000000002000c49c                DMAPTPRxDescToGet
                0x000000002000c4a0                DMARxDescToGet
                0x000000002000c4a4                DMATxDescToSet
                0x000000002000c4a8                DMAPTPTxDescToSet
 COMMON         0x000000002000c4ac        0x4 d:/mounriver/mounriver_studio/toolchain/risc-v embedded gcc/bin/../lib/gcc/riscv-none-embed/8.2.0/../../../../riscv-none-embed/lib/rv32imac/ilp32\libg_nano.a(lib_a-reent.o)
                0x000000002000c4ac                errno
                0x000000002000c4b0                . = ALIGN (0x4)
                0x000000002000c4b0                PROVIDE (_ebss = .)
                [!provide]                        PROVIDE (_end = _ebss)
                0x000000002000c4b0                PROVIDE (end = .)

.stack          0x000000002001f800      0x800
                0x000000002001f800                . = ALIGN (0x4)
                [!provide]                        PROVIDE (_susrstack = .)
                0x0000000020020000                . = (. + __stack_size)
 *fill*         0x000000002001f800      0x800 
                0x0000000020020000                PROVIDE (_eusrstack = .)
OUTPUT(TcpClient.elf elf32-littleriscv)

.debug_info     0x0000000000000000    0x15383
 .debug_info    0x0000000000000000      0xd8c ./User/IIC.o
 .debug_info    0x0000000000000d8c      0xde7 ./User/ch32v30x_it.o
 .debug_info    0x0000000000001b73     0x1406 ./User/es8388.o
 .debug_info    0x0000000000002f79     0x29ce ./User/lcd.o
 .debug_info    0x0000000000005947     0x2835 ./User/main.o
 .debug_info    0x000000000000817c      0xb63 ./User/system_ch32v30x.o
 .debug_info    0x0000000000008cdf       0x22 ./Startup/startup_ch32v30x.o
 .debug_info    0x0000000000008d01     0x272c ./Peripheral/src/ch32v30x_eth.o
 .debug_info    0x000000000000b42d     0x1209 ./Peripheral/src/ch32v30x_fsmc.o
 .debug_info    0x000000000000c636     0x10c3 ./Peripheral/src/ch32v30x_gpio.o
 .debug_info    0x000000000000d6f9     0x147e ./Peripheral/src/ch32v30x_i2c.o
 .debug_info    0x000000000000eb77     0x1557 ./Peripheral/src/ch32v30x_rcc.o
 .debug_info    0x00000000000100ce     0x2a18 ./Peripheral/src/ch32v30x_tim.o
 .debug_info    0x0000000000012ae6     0x13d1 ./Peripheral/src/ch32v30x_usart.o
 .debug_info    0x0000000000013eb7      0xeb0 ./Debug/debug.o
 .debug_info    0x0000000000014d67      0x61c ./Core/core_riscv.o

.debug_abbrev   0x0000000000000000     0x3177
 .debug_abbrev  0x0000000000000000      0x280 ./User/IIC.o
 .debug_abbrev  0x0000000000000280      0x281 ./User/ch32v30x_it.o
 .debug_abbrev  0x0000000000000501      0x346 ./User/es8388.o
 .debug_abbrev  0x0000000000000847      0x494 ./User/lcd.o
 .debug_abbrev  0x0000000000000cdb      0x4c5 ./User/main.o
 .debug_abbrev  0x00000000000011a0      0x2c0 ./User/system_ch32v30x.o
 .debug_abbrev  0x0000000000001460       0x12 ./Startup/startup_ch32v30x.o
 .debug_abbrev  0x0000000000001472      0x4c7 ./Peripheral/src/ch32v30x_eth.o
 .debug_abbrev  0x0000000000001939      0x2e2 ./Peripheral/src/ch32v30x_fsmc.o
 .debug_abbrev  0x0000000000001c1b      0x31a ./Peripheral/src/ch32v30x_gpio.o
 .debug_abbrev  0x0000000000001f35      0x3aa ./Peripheral/src/ch32v30x_i2c.o
 .debug_abbrev  0x00000000000022df      0x351 ./Peripheral/src/ch32v30x_rcc.o
 .debug_abbrev  0x0000000000002630      0x421 ./Peripheral/src/ch32v30x_tim.o
 .debug_abbrev  0x0000000000002a51      0x325 ./Peripheral/src/ch32v30x_usart.o
 .debug_abbrev  0x0000000000002d76      0x2f4 ./Debug/debug.o
 .debug_abbrev  0x000000000000306a      0x10d ./Core/core_riscv.o

.debug_loc      0x0000000000000000     0x6ab9
 .debug_loc     0x0000000000000000       0x4d ./User/IIC.o
 .debug_loc     0x000000000000004d      0x224 ./User/es8388.o
 .debug_loc     0x0000000000000271     0x158c ./User/lcd.o
 .debug_loc     0x00000000000017fd      0x2a5 ./User/main.o
 .debug_loc     0x0000000000001aa2       0xe5 ./User/system_ch32v30x.o
 .debug_loc     0x0000000000001b87      0xf97 ./Peripheral/src/ch32v30x_eth.o
 .debug_loc     0x0000000000002b1e      0x392 ./Peripheral/src/ch32v30x_fsmc.o
 .debug_loc     0x0000000000002eb0      0x647 ./Peripheral/src/ch32v30x_gpio.o
 .debug_loc     0x00000000000034f7      0x726 ./Peripheral/src/ch32v30x_i2c.o
 .debug_loc     0x0000000000003c1d      0xa5c ./Peripheral/src/ch32v30x_rcc.o
 .debug_loc     0x0000000000004679     0x1b0c ./Peripheral/src/ch32v30x_tim.o
 .debug_loc     0x0000000000006185      0x7ad ./Peripheral/src/ch32v30x_usart.o
 .debug_loc     0x0000000000006932      0x187 ./Debug/debug.o

.debug_aranges  0x0000000000000000      0xed0
 .debug_aranges
                0x0000000000000000       0x20 ./User/IIC.o
 .debug_aranges
                0x0000000000000020       0x38 ./User/ch32v30x_it.o
 .debug_aranges
                0x0000000000000058       0x60 ./User/es8388.o
 .debug_aranges
                0x00000000000000b8       0xf0 ./User/lcd.o
 .debug_aranges
                0x00000000000001a8       0x78 ./User/main.o
 .debug_aranges
                0x0000000000000220       0x28 ./User/system_ch32v30x.o
 .debug_aranges
                0x0000000000000248       0x30 ./Startup/startup_ch32v30x.o
 .debug_aranges
                0x0000000000000278      0x300 ./Peripheral/src/ch32v30x_eth.o
 .debug_aranges
                0x0000000000000578       0xb0 ./Peripheral/src/ch32v30x_fsmc.o
 .debug_aranges
                0x0000000000000628       0xa8 ./Peripheral/src/ch32v30x_gpio.o
 .debug_aranges
                0x00000000000006d0      0x110 ./Peripheral/src/ch32v30x_i2c.o
 .debug_aranges
                0x00000000000007e0      0x1a8 ./Peripheral/src/ch32v30x_rcc.o
 .debug_aranges
                0x0000000000000988      0x2d0 ./Peripheral/src/ch32v30x_tim.o
 .debug_aranges
                0x0000000000000c58      0x100 ./Peripheral/src/ch32v30x_usart.o
 .debug_aranges
                0x0000000000000d58       0x40 ./Debug/debug.o
 .debug_aranges
                0x0000000000000d98      0x138 ./Core/core_riscv.o

.debug_ranges   0x0000000000000000      0xfe0
 .debug_ranges  0x0000000000000000       0x10 ./User/IIC.o
 .debug_ranges  0x0000000000000010       0x28 ./User/ch32v30x_it.o
 .debug_ranges  0x0000000000000038       0x88 ./User/es8388.o
 .debug_ranges  0x00000000000000c0      0x160 ./User/lcd.o
 .debug_ranges  0x0000000000000220       0xb0 ./User/main.o
 .debug_ranges  0x00000000000002d0       0x38 ./User/system_ch32v30x.o
 .debug_ranges  0x0000000000000308       0x28 ./Startup/startup_ch32v30x.o
 .debug_ranges  0x0000000000000330      0x390 ./Peripheral/src/ch32v30x_eth.o
 .debug_ranges  0x00000000000006c0       0xa0 ./Peripheral/src/ch32v30x_fsmc.o
 .debug_ranges  0x0000000000000760       0x98 ./Peripheral/src/ch32v30x_gpio.o
 .debug_ranges  0x00000000000007f8      0x100 ./Peripheral/src/ch32v30x_i2c.o
 .debug_ranges  0x00000000000008f8      0x198 ./Peripheral/src/ch32v30x_rcc.o
 .debug_ranges  0x0000000000000a90      0x308 ./Peripheral/src/ch32v30x_tim.o
 .debug_ranges  0x0000000000000d98       0xf0 ./Peripheral/src/ch32v30x_usart.o
 .debug_ranges  0x0000000000000e88       0x30 ./Debug/debug.o
 .debug_ranges  0x0000000000000eb8      0x128 ./Core/core_riscv.o

.debug_line     0x0000000000000000    0x11a94
 .debug_line    0x0000000000000000      0x415 ./User/IIC.o
 .debug_line    0x0000000000000415      0x3c1 ./User/ch32v30x_it.o
 .debug_line    0x00000000000007d6      0x9d8 ./User/es8388.o
 .debug_line    0x00000000000011ae     0x22dd ./User/lcd.o
 .debug_line    0x000000000000348b      0xf4f ./User/main.o
 .debug_line    0x00000000000043da      0x6d9 ./User/system_ch32v30x.o
 .debug_line    0x0000000000004ab3      0x375 ./Startup/startup_ch32v30x.o
 .debug_line    0x0000000000004e28     0x31dd ./Peripheral/src/ch32v30x_eth.o
 .debug_line    0x0000000000008005     0x1303 ./Peripheral/src/ch32v30x_fsmc.o
 .debug_line    0x0000000000009308      0xd32 ./Peripheral/src/ch32v30x_gpio.o
 .debug_line    0x000000000000a03a     0x114a ./Peripheral/src/ch32v30x_i2c.o
 .debug_line    0x000000000000b184     0x179a ./Peripheral/src/ch32v30x_rcc.o
 .debug_line    0x000000000000c91e     0x33f8 ./Peripheral/src/ch32v30x_tim.o
 .debug_line    0x000000000000fd16     0x102e ./Peripheral/src/ch32v30x_usart.o
 .debug_line    0x0000000000010d44      0x62b ./Debug/debug.o
 .debug_line    0x000000000001136f      0x725 ./Core/core_riscv.o

.debug_str      0x0000000000000000     0x4d5f
 .debug_str     0x0000000000000000      0x7e9 ./User/IIC.o
                                        0x865 (size before relaxing)
 .debug_str     0x00000000000007e9      0x227 ./User/ch32v30x_it.o
                                        0x821 (size before relaxing)
 .debug_str     0x0000000000000a10      0x136 ./User/es8388.o
                                        0x8e5 (size before relaxing)
 .debug_str     0x0000000000000b46      0x6a2 ./User/lcd.o
                                        0xf3d (size before relaxing)
 .debug_str     0x00000000000011e8      0xa2a ./User/main.o
                                       0x14b2 (size before relaxing)
 .debug_str     0x0000000000001c12       0xf0 ./User/system_ch32v30x.o
                                        0x694 (size before relaxing)
 .debug_str     0x0000000000001d02       0x47 ./Startup/startup_ch32v30x.o
                                         0x71 (size before relaxing)
 .debug_str     0x0000000000001d49     0x1261 ./Peripheral/src/ch32v30x_eth.o
                                       0x1918 (size before relaxing)
 .debug_str     0x0000000000002faa      0x3cc ./Peripheral/src/ch32v30x_fsmc.o
                                        0xba8 (size before relaxing)
 .debug_str     0x0000000000003376      0x229 ./Peripheral/src/ch32v30x_gpio.o
                                        0x971 (size before relaxing)
 .debug_str     0x000000000000359f      0x34c ./Peripheral/src/ch32v30x_i2c.o
                                        0xae0 (size before relaxing)
 .debug_str     0x00000000000038eb      0x4c7 ./Peripheral/src/ch32v30x_rcc.o
                                        0xcc1 (size before relaxing)
 .debug_str     0x0000000000003db2      0x936 ./Peripheral/src/ch32v30x_tim.o
                                       0x127b (size before relaxing)
 .debug_str     0x00000000000046e8      0x433 ./Peripheral/src/ch32v30x_usart.o
                                        0xb17 (size before relaxing)
 .debug_str     0x0000000000004b1b       0x6d ./Debug/debug.o
                                        0x8d4 (size before relaxing)
 .debug_str     0x0000000000004b88      0x1d7 ./Core/core_riscv.o
                                        0x373 (size before relaxing)

.comment        0x0000000000000000       0x33
 .comment       0x0000000000000000       0x33 ./User/IIC.o
                                         0x34 (size before relaxing)
 .comment       0x0000000000000033       0x34 ./User/ch32v30x_it.o
 .comment       0x0000000000000033       0x34 ./User/es8388.o
 .comment       0x0000000000000033       0x34 ./User/lcd.o
 .comment       0x0000000000000033       0x34 ./User/main.o
 .comment       0x0000000000000033       0x34 ./User/system_ch32v30x.o
 .comment       0x0000000000000033       0x34 ./Peripheral/src/ch32v30x_eth.o
 .comment       0x0000000000000033       0x34 ./Peripheral/src/ch32v30x_fsmc.o
 .comment       0x0000000000000033       0x34 ./Peripheral/src/ch32v30x_gpio.o
 .comment       0x0000000000000033       0x34 ./Peripheral/src/ch32v30x_i2c.o
 .comment       0x0000000000000033       0x34 ./Peripheral/src/ch32v30x_rcc.o
 .comment       0x0000000000000033       0x34 ./Peripheral/src/ch32v30x_tim.o
 .comment       0x0000000000000033       0x34 ./Peripheral/src/ch32v30x_usart.o
 .comment       0x0000000000000033       0x34 ./Debug/debug.o
 .comment       0x0000000000000033       0x34 ./Core/core_riscv.o
 .comment       0x0000000000000033       0x34 D:\opench-ch32v307\firmware\TcpClient\NetLib\libwchnet.a(eth_driver.o)
 .comment       0x0000000000000033       0x34 D:\opench-ch32v307\firmware\TcpClient\NetLib\libwchnet.a(socket.o)
 .comment       0x0000000000000033       0x34 D:\opench-ch32v307\firmware\TcpClient\NetLib\libwchnet.a(etharp.o)
 .comment       0x0000000000000033       0x34 D:\opench-ch32v307\firmware\TcpClient\NetLib\libwchnet.a(ethernetif.o)
 .comment       0x0000000000000033       0x34 D:\opench-ch32v307\firmware\TcpClient\NetLib\libwchnet.a(inet.o)
 .comment       0x0000000000000033       0x34 D:\opench-ch32v307\firmware\TcpClient\NetLib\libwchnet.a(ip.o)
 .comment       0x0000000000000033       0x34 D:\opench-ch32v307\firmware\TcpClient\NetLib\libwchnet.a(ip_addr.o)
 .comment       0x0000000000000033       0x34 D:\opench-ch32v307\firmware\TcpClient\NetLib\libwchnet.a(ip_frag.o)
 .comment       0x0000000000000033       0x34 D:\opench-ch32v307\firmware\TcpClient\NetLib\libwchnet.a(init.o)
 .comment       0x0000000000000033       0x34 D:\opench-ch32v307\firmware\TcpClient\NetLib\libwchnet.a(mem.o)
 .comment       0x0000000000000033       0x34 D:\opench-ch32v307\firmware\TcpClient\NetLib\libwchnet.a(memp.o)
 .comment       0x0000000000000033       0x34 D:\opench-ch32v307\firmware\TcpClient\NetLib\libwchnet.a(netif.o)
 .comment       0x0000000000000033       0x34 D:\opench-ch32v307\firmware\TcpClient\NetLib\libwchnet.a(pbuf.o)
 .comment       0x0000000000000033       0x34 D:\opench-ch32v307\firmware\TcpClient\NetLib\libwchnet.a(raw.o)
 .comment       0x0000000000000033       0x34 D:\opench-ch32v307\firmware\TcpClient\NetLib\libwchnet.a(tcp.o)
 .comment       0x0000000000000033       0x34 D:\opench-ch32v307\firmware\TcpClient\NetLib\libwchnet.a(tcp_in.o)
 .comment       0x0000000000000033       0x34 D:\opench-ch32v307\firmware\TcpClient\NetLib\libwchnet.a(tcp_out.o)
 .comment       0x0000000000000033       0x34 D:\opench-ch32v307\firmware\TcpClient\NetLib\libwchnet.a(udp.o)
 .comment       0x0000000000000033       0x34 D:\opench-ch32v307\firmware\TcpClient\NetLib\libwchnet.a(ipcheck.o)
 .comment       0x0000000000000033       0x34 D:\opench-ch32v307\firmware\TcpClient\NetLib\libwchnet.a(wchnet_dhcp.o)
 .comment       0x0000000000000033       0x34 D:\opench-ch32v307\firmware\TcpClient\NetLib\libwchnet.a(wchnet_dns.o)
 .comment       0x0000000000000033       0x34 D:\opench-ch32v307\firmware\TcpClient\NetLib\libwchnet.a(icmp.o)
 .comment       0x0000000000000033       0x34 D:\opench-ch32v307\firmware\TcpClient\NetLib\libwchnet.a(inet_chksum.o)
 .comment       0x0000000000000033       0x34 d:/mounriver/mounriver_studio/toolchain/risc-v embedded gcc/bin/../lib/gcc/riscv-none-embed/8.2.0/../../../../riscv-none-embed/lib/rv32imac/ilp32\libprintf.a(wchprintf.o)

.debug_frame    0x0000000000000000     0x258c
 .debug_frame   0x0000000000000000       0x48 ./User/IIC.o
 .debug_frame   0x0000000000000048       0x50 ./User/ch32v30x_it.o
 .debug_frame   0x0000000000000098      0x118 ./User/es8388.o
 .debug_frame   0x00000000000001b0      0x3dc ./User/lcd.o
 .debug_frame   0x000000000000058c      0x170 ./User/main.o
 .debug_frame   0x00000000000006fc       0x3c ./User/system_ch32v30x.o
 .debug_frame   0x0000000000000738      0x6a4 ./Peripheral/src/ch32v30x_eth.o
 .debug_frame   0x0000000000000ddc      0x140 ./Peripheral/src/ch32v30x_fsmc.o
 .debug_frame   0x0000000000000f1c      0x150 ./Peripheral/src/ch32v30x_gpio.o
 .debug_frame   0x000000000000106c      0x25c ./Peripheral/src/ch32v30x_i2c.o
 .debug_frame   0x00000000000012c8      0x340 ./Peripheral/src/ch32v30x_rcc.o
 .debug_frame   0x0000000000001608      0x66c ./Peripheral/src/ch32v30x_tim.o
 .debug_frame   0x0000000000001c74      0x210 ./Peripheral/src/ch32v30x_usart.o
 .debug_frame   0x0000000000001e84       0x94 ./Debug/debug.o
 .debug_frame   0x0000000000001f18      0x250 ./Core/core_riscv.o
 .debug_frame   0x0000000000002168       0x20 d:/mounriver/mounriver_studio/toolchain/risc-v embedded gcc/bin/../lib/gcc/riscv-none-embed/8.2.0/../../../../riscv-none-embed/lib/rv32imac/ilp32\libg_nano.a(lib_a-memcpy.o)
 .debug_frame   0x0000000000002188       0x20 d:/mounriver/mounriver_studio/toolchain/risc-v embedded gcc/bin/../lib/gcc/riscv-none-embed/8.2.0/../../../../riscv-none-embed/lib/rv32imac/ilp32\libg_nano.a(lib_a-strlen.o)
 .debug_frame   0x00000000000021a8       0x20 d:/mounriver/mounriver_studio/toolchain/risc-v embedded gcc/bin/../lib/gcc/riscv-none-embed/8.2.0/../../../../riscv-none-embed/lib/rv32imac/ilp32\libg_nano.a(lib_a-strncmp.o)
 .debug_frame   0x00000000000021c8       0x48 d:/mounriver/mounriver_studio/toolchain/risc-v embedded gcc/bin/../lib/gcc/riscv-none-embed/8.2.0/../../../../riscv-none-embed/lib/rv32imac/ilp32\libg_nano.a(lib_a-vsnprintf.o)
 .debug_frame   0x0000000000002210       0xe0 d:/mounriver/mounriver_studio/toolchain/risc-v embedded gcc/bin/../lib/gcc/riscv-none-embed/8.2.0/../../../../riscv-none-embed/lib/rv32imac/ilp32\libg_nano.a(lib_a-nano-svfprintf.o)
 .debug_frame   0x00000000000022f0       0x8c d:/mounriver/mounriver_studio/toolchain/risc-v embedded gcc/bin/../lib/gcc/riscv-none-embed/8.2.0/../../../../riscv-none-embed/lib/rv32imac/ilp32\libg_nano.a(lib_a-nano-vfprintf_i.o)
 .debug_frame   0x000000000000237c       0x20 d:/mounriver/mounriver_studio/toolchain/risc-v embedded gcc/bin/../lib/gcc/riscv-none-embed/8.2.0/../../../../riscv-none-embed/lib/rv32imac/ilp32\libg_nano.a(lib_a-memchr.o)
 .debug_frame   0x000000000000239c       0x20 d:/mounriver/mounriver_studio/toolchain/risc-v embedded gcc/bin/../lib/gcc/riscv-none-embed/8.2.0/../../../../riscv-none-embed/lib/rv32imac/ilp32\libg_nano.a(lib_a-memmove.o)
 .debug_frame   0x00000000000023bc       0x40 d:/mounriver/mounriver_studio/toolchain/risc-v embedded gcc/bin/../lib/gcc/riscv-none-embed/8.2.0/../../../../riscv-none-embed/lib/rv32imac/ilp32\libg_nano.a(lib_a-nano-freer.o)
 .debug_frame   0x00000000000023fc       0x40 d:/mounriver/mounriver_studio/toolchain/risc-v embedded gcc/bin/../lib/gcc/riscv-none-embed/8.2.0/../../../../riscv-none-embed/lib/rv32imac/ilp32\libg_nano.a(lib_a-nano-mallocr.o)
 .debug_frame   0x000000000000243c       0x40 d:/mounriver/mounriver_studio/toolchain/risc-v embedded gcc/bin/../lib/gcc/riscv-none-embed/8.2.0/../../../../riscv-none-embed/lib/rv32imac/ilp32\libg_nano.a(lib_a-nano-reallocr.o)
 .debug_frame   0x000000000000247c       0x30 d:/mounriver/mounriver_studio/toolchain/risc-v embedded gcc/bin/../lib/gcc/riscv-none-embed/8.2.0/../../../../riscv-none-embed/lib/rv32imac/ilp32\libg_nano.a(lib_a-sbrkr.o)
 .debug_frame   0x00000000000024ac       0x30 d:/mounriver/mounriver_studio/toolchain/risc-v embedded gcc/bin/../lib/gcc/riscv-none-embed/8.2.0/../../../../riscv-none-embed/lib/rv32imac/ilp32\libg_nano.a(lib_a-mlock.o)
 .debug_frame   0x00000000000024dc       0x20 d:/mounriver/mounriver_studio/toolchain/risc-v embedded gcc/bin/../lib/gcc/riscv-none-embed/8.2.0/../../../../riscv-none-embed/lib/rv32imac/ilp32\libg_nano.a(lib_a-nano-msizer.o)
 .debug_frame   0x00000000000024fc       0x70 d:/mounriver/mounriver_studio/toolchain/risc-v embedded gcc/bin/../lib/gcc/riscv-none-embed/8.2.0/../../../../riscv-none-embed/lib/rv32imac/ilp32\libg_nano.a(lib_a-reent.o)
 .debug_frame   0x000000000000256c       0x20 d:/mounriver/mounriver_studio/toolchain/risc-v embedded gcc/bin/../lib/gcc/riscv-none-embed/8.2.0/../../../../riscv-none-embed/lib/rv32imac/ilp32\libnosys.a(sbrk.o)
